; ModuleID = '/home/jazouani/llvm/llvm-3.2/tools/clang/test/CodeGenCXX/debug-info-determinism.cpp'
target datalayout = "e-p:64:64:64-i1:8:8-i8:8:8-i16:16:16-i32:32:32-i64:64:64-f32:32:32-f64:64:64-v64:64:64-v128:128:128-a0:0:64-s0:64:64-f80:128:128-n8:16:32:64-S128"
target triple = "x86_64-unknown-linux-gnu"

%struct.C = type { i8 }
%struct.C.0 = type { i8 }
%struct.C.1 = type { i8 }
%struct.C.2 = type { i8 }
%struct.C.3 = type { i8 }
%struct.C.4 = type { i8 }
%struct.C.5 = type { i8 }
%struct.C.6 = type { i8 }
%struct.C.7 = type { i8 }
%struct.C.8 = type { i8 }
%struct.C.9 = type { i8 }
%struct.C.10 = type { i8 }
%struct.C.11 = type { i8 }
%struct.C.12 = type { i8 }
%struct.C.13 = type { i8 }
%struct.C.14 = type { i8 }
%struct.C.15 = type { i8 }
%struct.C.16 = type { i8 }
%struct.C.17 = type { i8 }
%struct.C.18 = type { i8 }
%struct.C.19 = type { i8 }
%struct.C.20 = type { i8 }
%struct.C.21 = type { i8 }
%struct.C.22 = type { i8 }
%struct.C.23 = type { i8 }
%struct.C.24 = type { i8 }
%struct.C.25 = type { i8 }
%struct.C.26 = type { i8 }
%struct.C.27 = type { i8 }
%struct.C.28 = type { i8 }
%struct.C.29 = type { i8 }
%struct.C.30 = type { i8 }
%struct.C.31 = type { i8 }

@x = global i32 0, align 4
@llvm.global_ctors = appending global [1 x { i32, void ()* }] [{ i32, void ()* } { i32 65535, void ()* @_GLOBAL__I_a }]

define i32 @_ZN1CILi0EE1fILi0EEEiv(%struct.C* %this) nounwind align 2 {
entry:
  %this.addr = alloca %struct.C*, align 8
  store %struct.C* %this, %struct.C** %this.addr, align 8
  call void @llvm.dbg.declare(metadata !{%struct.C** %this.addr}, metadata !788), !dbg !790
  %this1 = load %struct.C** %this.addr
  ret i32 0, !dbg !791
}

declare void @llvm.dbg.declare(metadata, metadata) nounwind readnone

define i32 @_ZN1CILi0EE1fILi1EEEiv(%struct.C* %this) nounwind align 2 {
entry:
  %this.addr = alloca %struct.C*, align 8
  store %struct.C* %this, %struct.C** %this.addr, align 8
  call void @llvm.dbg.declare(metadata !{%struct.C** %this.addr}, metadata !793), !dbg !794
  %this1 = load %struct.C** %this.addr
  ret i32 0, !dbg !795
}

define i32 @_ZN1CILi1EE1fILi0EEEiv(%struct.C.0* %this) nounwind align 2 {
entry:
  %this.addr = alloca %struct.C.0*, align 8
  store %struct.C.0* %this, %struct.C.0** %this.addr, align 8
  call void @llvm.dbg.declare(metadata !{%struct.C.0** %this.addr}, metadata !797), !dbg !799
  %this1 = load %struct.C.0** %this.addr
  ret i32 0, !dbg !800
}

define i32 @_ZN1CILi1EE1fILi1EEEiv(%struct.C.0* %this) nounwind align 2 {
entry:
  %this.addr = alloca %struct.C.0*, align 8
  store %struct.C.0* %this, %struct.C.0** %this.addr, align 8
  call void @llvm.dbg.declare(metadata !{%struct.C.0** %this.addr}, metadata !802), !dbg !803
  %this1 = load %struct.C.0** %this.addr
  ret i32 0, !dbg !804
}

define internal void @__cxx_global_var_init() nounwind section ".text.startup" {
entry:
  %tmp = alloca %struct.C, align 1
  %call = call i32 @_ZN1CILi0EE1fILi64EEEiv(%struct.C* %tmp), !dbg !806
  store i32 %call, i32* @x, align 4, !dbg !806
  ret void, !dbg !806
}

define linkonce_odr i32 @_ZN1CILi0EE1fILi64EEEiv(%struct.C* %this) nounwind align 2 {
entry:
  %this.addr = alloca %struct.C*, align 8
  %arr = alloca [64 x i32], align 16
  %tmp = alloca %struct.C.1, align 1
  store %struct.C* %this, %struct.C** %this.addr, align 8
  call void @llvm.dbg.declare(metadata !{%struct.C** %this.addr}, metadata !807), !dbg !808
  %this1 = load %struct.C** %this.addr
  call void @llvm.dbg.declare(metadata !{[64 x i32]* %arr}, metadata !809), !dbg !814
  %0 = bitcast [64 x i32]* %arr to i8*, !dbg !814
  call void @llvm.memset.p0i8.i64(i8* %0, i8 0, i64 256, i32 16, i1 false), !dbg !814
  %arrayidx = getelementptr inbounds [64 x i32]* %arr, i32 0, i64 32, !dbg !815
  %1 = load i32* %arrayidx, align 4, !dbg !815
  %call = call i32 @_ZN1CILi32EE1fILi63EEEiv(%struct.C.1* %tmp), !dbg !815
  %add = add nsw i32 %1, %call, !dbg !815
  ret i32 %add, !dbg !815
}

declare void @llvm.memset.p0i8.i64(i8* nocapture, i8, i64, i32, i1) nounwind

define linkonce_odr i32 @_ZN1CILi32EE1fILi63EEEiv(%struct.C.1* %this) nounwind align 2 {
entry:
  %this.addr = alloca %struct.C.1*, align 8
  %arr = alloca [63 x i32], align 16
  %tmp = alloca %struct.C.2, align 1
  store %struct.C.1* %this, %struct.C.1** %this.addr, align 8
  call void @llvm.dbg.declare(metadata !{%struct.C.1** %this.addr}, metadata !816), !dbg !818
  %this1 = load %struct.C.1** %this.addr
  call void @llvm.dbg.declare(metadata !{[63 x i32]* %arr}, metadata !819), !dbg !824
  %0 = bitcast [63 x i32]* %arr to i8*, !dbg !824
  call void @llvm.memset.p0i8.i64(i8* %0, i8 0, i64 252, i32 16, i1 false), !dbg !824
  %arrayidx = getelementptr inbounds [63 x i32]* %arr, i32 0, i64 31, !dbg !825
  %1 = load i32* %arrayidx, align 4, !dbg !825
  %call = call i32 @_ZN1CILi31EE1fILi62EEEiv(%struct.C.2* %tmp), !dbg !825
  %add = add nsw i32 %1, %call, !dbg !825
  ret i32 %add, !dbg !825
}

define linkonce_odr i32 @_ZN1CILi31EE1fILi62EEEiv(%struct.C.2* %this) nounwind align 2 {
entry:
  %this.addr = alloca %struct.C.2*, align 8
  %arr = alloca [62 x i32], align 16
  %tmp = alloca %struct.C.2, align 1
  store %struct.C.2* %this, %struct.C.2** %this.addr, align 8
  call void @llvm.dbg.declare(metadata !{%struct.C.2** %this.addr}, metadata !826), !dbg !828
  %this1 = load %struct.C.2** %this.addr
  call void @llvm.dbg.declare(metadata !{[62 x i32]* %arr}, metadata !829), !dbg !834
  %0 = bitcast [62 x i32]* %arr to i8*, !dbg !834
  call void @llvm.memset.p0i8.i64(i8* %0, i8 0, i64 248, i32 16, i1 false), !dbg !834
  %arrayidx = getelementptr inbounds [62 x i32]* %arr, i32 0, i64 31, !dbg !835
  %1 = load i32* %arrayidx, align 4, !dbg !835
  %call = call i32 @_ZN1CILi31EE1fILi61EEEiv(%struct.C.2* %tmp), !dbg !835
  %add = add nsw i32 %1, %call, !dbg !835
  ret i32 %add, !dbg !835
}

define linkonce_odr i32 @_ZN1CILi31EE1fILi61EEEiv(%struct.C.2* %this) nounwind align 2 {
entry:
  %this.addr = alloca %struct.C.2*, align 8
  %arr = alloca [61 x i32], align 16
  %tmp = alloca %struct.C.3, align 1
  store %struct.C.2* %this, %struct.C.2** %this.addr, align 8
  call void @llvm.dbg.declare(metadata !{%struct.C.2** %this.addr}, metadata !836), !dbg !837
  %this1 = load %struct.C.2** %this.addr
  call void @llvm.dbg.declare(metadata !{[61 x i32]* %arr}, metadata !838), !dbg !843
  %0 = bitcast [61 x i32]* %arr to i8*, !dbg !843
  call void @llvm.memset.p0i8.i64(i8* %0, i8 0, i64 244, i32 16, i1 false), !dbg !843
  %arrayidx = getelementptr inbounds [61 x i32]* %arr, i32 0, i64 30, !dbg !844
  %1 = load i32* %arrayidx, align 4, !dbg !844
  %call = call i32 @_ZN1CILi30EE1fILi60EEEiv(%struct.C.3* %tmp), !dbg !844
  %add = add nsw i32 %1, %call, !dbg !844
  ret i32 %add, !dbg !844
}

define linkonce_odr i32 @_ZN1CILi30EE1fILi60EEEiv(%struct.C.3* %this) nounwind align 2 {
entry:
  %this.addr = alloca %struct.C.3*, align 8
  %arr = alloca [60 x i32], align 16
  %tmp = alloca %struct.C.3, align 1
  store %struct.C.3* %this, %struct.C.3** %this.addr, align 8
  call void @llvm.dbg.declare(metadata !{%struct.C.3** %this.addr}, metadata !845), !dbg !847
  %this1 = load %struct.C.3** %this.addr
  call void @llvm.dbg.declare(metadata !{[60 x i32]* %arr}, metadata !848), !dbg !853
  %0 = bitcast [60 x i32]* %arr to i8*, !dbg !853
  call void @llvm.memset.p0i8.i64(i8* %0, i8 0, i64 240, i32 16, i1 false), !dbg !853
  %arrayidx = getelementptr inbounds [60 x i32]* %arr, i32 0, i64 30, !dbg !854
  %1 = load i32* %arrayidx, align 4, !dbg !854
  %call = call i32 @_ZN1CILi30EE1fILi59EEEiv(%struct.C.3* %tmp), !dbg !854
  %add = add nsw i32 %1, %call, !dbg !854
  ret i32 %add, !dbg !854
}

define linkonce_odr i32 @_ZN1CILi30EE1fILi59EEEiv(%struct.C.3* %this) nounwind align 2 {
entry:
  %this.addr = alloca %struct.C.3*, align 8
  %arr = alloca [59 x i32], align 16
  %tmp = alloca %struct.C.4, align 1
  store %struct.C.3* %this, %struct.C.3** %this.addr, align 8
  call void @llvm.dbg.declare(metadata !{%struct.C.3** %this.addr}, metadata !855), !dbg !856
  %this1 = load %struct.C.3** %this.addr
  call void @llvm.dbg.declare(metadata !{[59 x i32]* %arr}, metadata !857), !dbg !862
  %0 = bitcast [59 x i32]* %arr to i8*, !dbg !862
  call void @llvm.memset.p0i8.i64(i8* %0, i8 0, i64 236, i32 16, i1 false), !dbg !862
  %arrayidx = getelementptr inbounds [59 x i32]* %arr, i32 0, i64 29, !dbg !863
  %1 = load i32* %arrayidx, align 4, !dbg !863
  %call = call i32 @_ZN1CILi29EE1fILi58EEEiv(%struct.C.4* %tmp), !dbg !863
  %add = add nsw i32 %1, %call, !dbg !863
  ret i32 %add, !dbg !863
}

define linkonce_odr i32 @_ZN1CILi29EE1fILi58EEEiv(%struct.C.4* %this) nounwind align 2 {
entry:
  %this.addr = alloca %struct.C.4*, align 8
  %arr = alloca [58 x i32], align 16
  %tmp = alloca %struct.C.4, align 1
  store %struct.C.4* %this, %struct.C.4** %this.addr, align 8
  call void @llvm.dbg.declare(metadata !{%struct.C.4** %this.addr}, metadata !864), !dbg !866
  %this1 = load %struct.C.4** %this.addr
  call void @llvm.dbg.declare(metadata !{[58 x i32]* %arr}, metadata !867), !dbg !872
  %0 = bitcast [58 x i32]* %arr to i8*, !dbg !872
  call void @llvm.memset.p0i8.i64(i8* %0, i8 0, i64 232, i32 16, i1 false), !dbg !872
  %arrayidx = getelementptr inbounds [58 x i32]* %arr, i32 0, i64 29, !dbg !873
  %1 = load i32* %arrayidx, align 4, !dbg !873
  %call = call i32 @_ZN1CILi29EE1fILi57EEEiv(%struct.C.4* %tmp), !dbg !873
  %add = add nsw i32 %1, %call, !dbg !873
  ret i32 %add, !dbg !873
}

define linkonce_odr i32 @_ZN1CILi29EE1fILi57EEEiv(%struct.C.4* %this) nounwind align 2 {
entry:
  %this.addr = alloca %struct.C.4*, align 8
  %arr = alloca [57 x i32], align 16
  %tmp = alloca %struct.C.5, align 1
  store %struct.C.4* %this, %struct.C.4** %this.addr, align 8
  call void @llvm.dbg.declare(metadata !{%struct.C.4** %this.addr}, metadata !874), !dbg !875
  %this1 = load %struct.C.4** %this.addr
  call void @llvm.dbg.declare(metadata !{[57 x i32]* %arr}, metadata !876), !dbg !881
  %0 = bitcast [57 x i32]* %arr to i8*, !dbg !881
  call void @llvm.memset.p0i8.i64(i8* %0, i8 0, i64 228, i32 16, i1 false), !dbg !881
  %arrayidx = getelementptr inbounds [57 x i32]* %arr, i32 0, i64 28, !dbg !882
  %1 = load i32* %arrayidx, align 4, !dbg !882
  %call = call i32 @_ZN1CILi28EE1fILi56EEEiv(%struct.C.5* %tmp), !dbg !882
  %add = add nsw i32 %1, %call, !dbg !882
  ret i32 %add, !dbg !882
}

define linkonce_odr i32 @_ZN1CILi28EE1fILi56EEEiv(%struct.C.5* %this) nounwind align 2 {
entry:
  %this.addr = alloca %struct.C.5*, align 8
  %arr = alloca [56 x i32], align 16
  %tmp = alloca %struct.C.5, align 1
  store %struct.C.5* %this, %struct.C.5** %this.addr, align 8
  call void @llvm.dbg.declare(metadata !{%struct.C.5** %this.addr}, metadata !883), !dbg !885
  %this1 = load %struct.C.5** %this.addr
  call void @llvm.dbg.declare(metadata !{[56 x i32]* %arr}, metadata !886), !dbg !891
  %0 = bitcast [56 x i32]* %arr to i8*, !dbg !891
  call void @llvm.memset.p0i8.i64(i8* %0, i8 0, i64 224, i32 16, i1 false), !dbg !891
  %arrayidx = getelementptr inbounds [56 x i32]* %arr, i32 0, i64 28, !dbg !892
  %1 = load i32* %arrayidx, align 4, !dbg !892
  %call = call i32 @_ZN1CILi28EE1fILi55EEEiv(%struct.C.5* %tmp), !dbg !892
  %add = add nsw i32 %1, %call, !dbg !892
  ret i32 %add, !dbg !892
}

define linkonce_odr i32 @_ZN1CILi28EE1fILi55EEEiv(%struct.C.5* %this) nounwind align 2 {
entry:
  %this.addr = alloca %struct.C.5*, align 8
  %arr = alloca [55 x i32], align 16
  %tmp = alloca %struct.C.6, align 1
  store %struct.C.5* %this, %struct.C.5** %this.addr, align 8
  call void @llvm.dbg.declare(metadata !{%struct.C.5** %this.addr}, metadata !893), !dbg !894
  %this1 = load %struct.C.5** %this.addr
  call void @llvm.dbg.declare(metadata !{[55 x i32]* %arr}, metadata !895), !dbg !900
  %0 = bitcast [55 x i32]* %arr to i8*, !dbg !900
  call void @llvm.memset.p0i8.i64(i8* %0, i8 0, i64 220, i32 16, i1 false), !dbg !900
  %arrayidx = getelementptr inbounds [55 x i32]* %arr, i32 0, i64 27, !dbg !901
  %1 = load i32* %arrayidx, align 4, !dbg !901
  %call = call i32 @_ZN1CILi27EE1fILi54EEEiv(%struct.C.6* %tmp), !dbg !901
  %add = add nsw i32 %1, %call, !dbg !901
  ret i32 %add, !dbg !901
}

define linkonce_odr i32 @_ZN1CILi27EE1fILi54EEEiv(%struct.C.6* %this) nounwind align 2 {
entry:
  %this.addr = alloca %struct.C.6*, align 8
  %arr = alloca [54 x i32], align 16
  %tmp = alloca %struct.C.6, align 1
  store %struct.C.6* %this, %struct.C.6** %this.addr, align 8
  call void @llvm.dbg.declare(metadata !{%struct.C.6** %this.addr}, metadata !902), !dbg !904
  %this1 = load %struct.C.6** %this.addr
  call void @llvm.dbg.declare(metadata !{[54 x i32]* %arr}, metadata !905), !dbg !910
  %0 = bitcast [54 x i32]* %arr to i8*, !dbg !910
  call void @llvm.memset.p0i8.i64(i8* %0, i8 0, i64 216, i32 16, i1 false), !dbg !910
  %arrayidx = getelementptr inbounds [54 x i32]* %arr, i32 0, i64 27, !dbg !911
  %1 = load i32* %arrayidx, align 4, !dbg !911
  %call = call i32 @_ZN1CILi27EE1fILi53EEEiv(%struct.C.6* %tmp), !dbg !911
  %add = add nsw i32 %1, %call, !dbg !911
  ret i32 %add, !dbg !911
}

define linkonce_odr i32 @_ZN1CILi27EE1fILi53EEEiv(%struct.C.6* %this) nounwind align 2 {
entry:
  %this.addr = alloca %struct.C.6*, align 8
  %arr = alloca [53 x i32], align 16
  %tmp = alloca %struct.C.7, align 1
  store %struct.C.6* %this, %struct.C.6** %this.addr, align 8
  call void @llvm.dbg.declare(metadata !{%struct.C.6** %this.addr}, metadata !912), !dbg !913
  %this1 = load %struct.C.6** %this.addr
  call void @llvm.dbg.declare(metadata !{[53 x i32]* %arr}, metadata !914), !dbg !919
  %0 = bitcast [53 x i32]* %arr to i8*, !dbg !919
  call void @llvm.memset.p0i8.i64(i8* %0, i8 0, i64 212, i32 16, i1 false), !dbg !919
  %arrayidx = getelementptr inbounds [53 x i32]* %arr, i32 0, i64 26, !dbg !920
  %1 = load i32* %arrayidx, align 4, !dbg !920
  %call = call i32 @_ZN1CILi26EE1fILi52EEEiv(%struct.C.7* %tmp), !dbg !920
  %add = add nsw i32 %1, %call, !dbg !920
  ret i32 %add, !dbg !920
}

define linkonce_odr i32 @_ZN1CILi26EE1fILi52EEEiv(%struct.C.7* %this) nounwind align 2 {
entry:
  %this.addr = alloca %struct.C.7*, align 8
  %arr = alloca [52 x i32], align 16
  %tmp = alloca %struct.C.7, align 1
  store %struct.C.7* %this, %struct.C.7** %this.addr, align 8
  call void @llvm.dbg.declare(metadata !{%struct.C.7** %this.addr}, metadata !921), !dbg !923
  %this1 = load %struct.C.7** %this.addr
  call void @llvm.dbg.declare(metadata !{[52 x i32]* %arr}, metadata !924), !dbg !929
  %0 = bitcast [52 x i32]* %arr to i8*, !dbg !929
  call void @llvm.memset.p0i8.i64(i8* %0, i8 0, i64 208, i32 16, i1 false), !dbg !929
  %arrayidx = getelementptr inbounds [52 x i32]* %arr, i32 0, i64 26, !dbg !930
  %1 = load i32* %arrayidx, align 4, !dbg !930
  %call = call i32 @_ZN1CILi26EE1fILi51EEEiv(%struct.C.7* %tmp), !dbg !930
  %add = add nsw i32 %1, %call, !dbg !930
  ret i32 %add, !dbg !930
}

define linkonce_odr i32 @_ZN1CILi26EE1fILi51EEEiv(%struct.C.7* %this) nounwind align 2 {
entry:
  %this.addr = alloca %struct.C.7*, align 8
  %arr = alloca [51 x i32], align 16
  %tmp = alloca %struct.C.8, align 1
  store %struct.C.7* %this, %struct.C.7** %this.addr, align 8
  call void @llvm.dbg.declare(metadata !{%struct.C.7** %this.addr}, metadata !931), !dbg !932
  %this1 = load %struct.C.7** %this.addr
  call void @llvm.dbg.declare(metadata !{[51 x i32]* %arr}, metadata !933), !dbg !938
  %0 = bitcast [51 x i32]* %arr to i8*, !dbg !938
  call void @llvm.memset.p0i8.i64(i8* %0, i8 0, i64 204, i32 16, i1 false), !dbg !938
  %arrayidx = getelementptr inbounds [51 x i32]* %arr, i32 0, i64 25, !dbg !939
  %1 = load i32* %arrayidx, align 4, !dbg !939
  %call = call i32 @_ZN1CILi25EE1fILi50EEEiv(%struct.C.8* %tmp), !dbg !939
  %add = add nsw i32 %1, %call, !dbg !939
  ret i32 %add, !dbg !939
}

define linkonce_odr i32 @_ZN1CILi25EE1fILi50EEEiv(%struct.C.8* %this) nounwind align 2 {
entry:
  %this.addr = alloca %struct.C.8*, align 8
  %arr = alloca [50 x i32], align 16
  %tmp = alloca %struct.C.8, align 1
  store %struct.C.8* %this, %struct.C.8** %this.addr, align 8
  call void @llvm.dbg.declare(metadata !{%struct.C.8** %this.addr}, metadata !940), !dbg !942
  %this1 = load %struct.C.8** %this.addr
  call void @llvm.dbg.declare(metadata !{[50 x i32]* %arr}, metadata !943), !dbg !948
  %0 = bitcast [50 x i32]* %arr to i8*, !dbg !948
  call void @llvm.memset.p0i8.i64(i8* %0, i8 0, i64 200, i32 16, i1 false), !dbg !948
  %arrayidx = getelementptr inbounds [50 x i32]* %arr, i32 0, i64 25, !dbg !949
  %1 = load i32* %arrayidx, align 4, !dbg !949
  %call = call i32 @_ZN1CILi25EE1fILi49EEEiv(%struct.C.8* %tmp), !dbg !949
  %add = add nsw i32 %1, %call, !dbg !949
  ret i32 %add, !dbg !949
}

define linkonce_odr i32 @_ZN1CILi25EE1fILi49EEEiv(%struct.C.8* %this) nounwind align 2 {
entry:
  %this.addr = alloca %struct.C.8*, align 8
  %arr = alloca [49 x i32], align 16
  %tmp = alloca %struct.C.9, align 1
  store %struct.C.8* %this, %struct.C.8** %this.addr, align 8
  call void @llvm.dbg.declare(metadata !{%struct.C.8** %this.addr}, metadata !950), !dbg !951
  %this1 = load %struct.C.8** %this.addr
  call void @llvm.dbg.declare(metadata !{[49 x i32]* %arr}, metadata !952), !dbg !957
  %0 = bitcast [49 x i32]* %arr to i8*, !dbg !957
  call void @llvm.memset.p0i8.i64(i8* %0, i8 0, i64 196, i32 16, i1 false), !dbg !957
  %arrayidx = getelementptr inbounds [49 x i32]* %arr, i32 0, i64 24, !dbg !958
  %1 = load i32* %arrayidx, align 4, !dbg !958
  %call = call i32 @_ZN1CILi24EE1fILi48EEEiv(%struct.C.9* %tmp), !dbg !958
  %add = add nsw i32 %1, %call, !dbg !958
  ret i32 %add, !dbg !958
}

define linkonce_odr i32 @_ZN1CILi24EE1fILi48EEEiv(%struct.C.9* %this) nounwind align 2 {
entry:
  %this.addr = alloca %struct.C.9*, align 8
  %arr = alloca [48 x i32], align 16
  %tmp = alloca %struct.C.9, align 1
  store %struct.C.9* %this, %struct.C.9** %this.addr, align 8
  call void @llvm.dbg.declare(metadata !{%struct.C.9** %this.addr}, metadata !959), !dbg !961
  %this1 = load %struct.C.9** %this.addr
  call void @llvm.dbg.declare(metadata !{[48 x i32]* %arr}, metadata !962), !dbg !967
  %0 = bitcast [48 x i32]* %arr to i8*, !dbg !967
  call void @llvm.memset.p0i8.i64(i8* %0, i8 0, i64 192, i32 16, i1 false), !dbg !967
  %arrayidx = getelementptr inbounds [48 x i32]* %arr, i32 0, i64 24, !dbg !968
  %1 = load i32* %arrayidx, align 4, !dbg !968
  %call = call i32 @_ZN1CILi24EE1fILi47EEEiv(%struct.C.9* %tmp), !dbg !968
  %add = add nsw i32 %1, %call, !dbg !968
  ret i32 %add, !dbg !968
}

define linkonce_odr i32 @_ZN1CILi24EE1fILi47EEEiv(%struct.C.9* %this) nounwind align 2 {
entry:
  %this.addr = alloca %struct.C.9*, align 8
  %arr = alloca [47 x i32], align 16
  %tmp = alloca %struct.C.10, align 1
  store %struct.C.9* %this, %struct.C.9** %this.addr, align 8
  call void @llvm.dbg.declare(metadata !{%struct.C.9** %this.addr}, metadata !969), !dbg !970
  %this1 = load %struct.C.9** %this.addr
  call void @llvm.dbg.declare(metadata !{[47 x i32]* %arr}, metadata !971), !dbg !976
  %0 = bitcast [47 x i32]* %arr to i8*, !dbg !976
  call void @llvm.memset.p0i8.i64(i8* %0, i8 0, i64 188, i32 16, i1 false), !dbg !976
  %arrayidx = getelementptr inbounds [47 x i32]* %arr, i32 0, i64 23, !dbg !977
  %1 = load i32* %arrayidx, align 4, !dbg !977
  %call = call i32 @_ZN1CILi23EE1fILi46EEEiv(%struct.C.10* %tmp), !dbg !977
  %add = add nsw i32 %1, %call, !dbg !977
  ret i32 %add, !dbg !977
}

define linkonce_odr i32 @_ZN1CILi23EE1fILi46EEEiv(%struct.C.10* %this) nounwind align 2 {
entry:
  %this.addr = alloca %struct.C.10*, align 8
  %arr = alloca [46 x i32], align 16
  %tmp = alloca %struct.C.10, align 1
  store %struct.C.10* %this, %struct.C.10** %this.addr, align 8
  call void @llvm.dbg.declare(metadata !{%struct.C.10** %this.addr}, metadata !978), !dbg !980
  %this1 = load %struct.C.10** %this.addr
  call void @llvm.dbg.declare(metadata !{[46 x i32]* %arr}, metadata !981), !dbg !986
  %0 = bitcast [46 x i32]* %arr to i8*, !dbg !986
  call void @llvm.memset.p0i8.i64(i8* %0, i8 0, i64 184, i32 16, i1 false), !dbg !986
  %arrayidx = getelementptr inbounds [46 x i32]* %arr, i32 0, i64 23, !dbg !987
  %1 = load i32* %arrayidx, align 4, !dbg !987
  %call = call i32 @_ZN1CILi23EE1fILi45EEEiv(%struct.C.10* %tmp), !dbg !987
  %add = add nsw i32 %1, %call, !dbg !987
  ret i32 %add, !dbg !987
}

define linkonce_odr i32 @_ZN1CILi23EE1fILi45EEEiv(%struct.C.10* %this) nounwind align 2 {
entry:
  %this.addr = alloca %struct.C.10*, align 8
  %arr = alloca [45 x i32], align 16
  %tmp = alloca %struct.C.11, align 1
  store %struct.C.10* %this, %struct.C.10** %this.addr, align 8
  call void @llvm.dbg.declare(metadata !{%struct.C.10** %this.addr}, metadata !988), !dbg !989
  %this1 = load %struct.C.10** %this.addr
  call void @llvm.dbg.declare(metadata !{[45 x i32]* %arr}, metadata !990), !dbg !995
  %0 = bitcast [45 x i32]* %arr to i8*, !dbg !995
  call void @llvm.memset.p0i8.i64(i8* %0, i8 0, i64 180, i32 16, i1 false), !dbg !995
  %arrayidx = getelementptr inbounds [45 x i32]* %arr, i32 0, i64 22, !dbg !996
  %1 = load i32* %arrayidx, align 4, !dbg !996
  %call = call i32 @_ZN1CILi22EE1fILi44EEEiv(%struct.C.11* %tmp), !dbg !996
  %add = add nsw i32 %1, %call, !dbg !996
  ret i32 %add, !dbg !996
}

define linkonce_odr i32 @_ZN1CILi22EE1fILi44EEEiv(%struct.C.11* %this) nounwind align 2 {
entry:
  %this.addr = alloca %struct.C.11*, align 8
  %arr = alloca [44 x i32], align 16
  %tmp = alloca %struct.C.11, align 1
  store %struct.C.11* %this, %struct.C.11** %this.addr, align 8
  call void @llvm.dbg.declare(metadata !{%struct.C.11** %this.addr}, metadata !997), !dbg !999
  %this1 = load %struct.C.11** %this.addr
  call void @llvm.dbg.declare(metadata !{[44 x i32]* %arr}, metadata !1000), !dbg !1005
  %0 = bitcast [44 x i32]* %arr to i8*, !dbg !1005
  call void @llvm.memset.p0i8.i64(i8* %0, i8 0, i64 176, i32 16, i1 false), !dbg !1005
  %arrayidx = getelementptr inbounds [44 x i32]* %arr, i32 0, i64 22, !dbg !1006
  %1 = load i32* %arrayidx, align 4, !dbg !1006
  %call = call i32 @_ZN1CILi22EE1fILi43EEEiv(%struct.C.11* %tmp), !dbg !1006
  %add = add nsw i32 %1, %call, !dbg !1006
  ret i32 %add, !dbg !1006
}

define linkonce_odr i32 @_ZN1CILi22EE1fILi43EEEiv(%struct.C.11* %this) nounwind align 2 {
entry:
  %this.addr = alloca %struct.C.11*, align 8
  %arr = alloca [43 x i32], align 16
  %tmp = alloca %struct.C.12, align 1
  store %struct.C.11* %this, %struct.C.11** %this.addr, align 8
  call void @llvm.dbg.declare(metadata !{%struct.C.11** %this.addr}, metadata !1007), !dbg !1008
  %this1 = load %struct.C.11** %this.addr
  call void @llvm.dbg.declare(metadata !{[43 x i32]* %arr}, metadata !1009), !dbg !1014
  %0 = bitcast [43 x i32]* %arr to i8*, !dbg !1014
  call void @llvm.memset.p0i8.i64(i8* %0, i8 0, i64 172, i32 16, i1 false), !dbg !1014
  %arrayidx = getelementptr inbounds [43 x i32]* %arr, i32 0, i64 21, !dbg !1015
  %1 = load i32* %arrayidx, align 4, !dbg !1015
  %call = call i32 @_ZN1CILi21EE1fILi42EEEiv(%struct.C.12* %tmp), !dbg !1015
  %add = add nsw i32 %1, %call, !dbg !1015
  ret i32 %add, !dbg !1015
}

define linkonce_odr i32 @_ZN1CILi21EE1fILi42EEEiv(%struct.C.12* %this) nounwind align 2 {
entry:
  %this.addr = alloca %struct.C.12*, align 8
  %arr = alloca [42 x i32], align 16
  %tmp = alloca %struct.C.12, align 1
  store %struct.C.12* %this, %struct.C.12** %this.addr, align 8
  call void @llvm.dbg.declare(metadata !{%struct.C.12** %this.addr}, metadata !1016), !dbg !1018
  %this1 = load %struct.C.12** %this.addr
  call void @llvm.dbg.declare(metadata !{[42 x i32]* %arr}, metadata !1019), !dbg !1024
  %0 = bitcast [42 x i32]* %arr to i8*, !dbg !1024
  call void @llvm.memset.p0i8.i64(i8* %0, i8 0, i64 168, i32 16, i1 false), !dbg !1024
  %arrayidx = getelementptr inbounds [42 x i32]* %arr, i32 0, i64 21, !dbg !1025
  %1 = load i32* %arrayidx, align 4, !dbg !1025
  %call = call i32 @_ZN1CILi21EE1fILi41EEEiv(%struct.C.12* %tmp), !dbg !1025
  %add = add nsw i32 %1, %call, !dbg !1025
  ret i32 %add, !dbg !1025
}

define linkonce_odr i32 @_ZN1CILi21EE1fILi41EEEiv(%struct.C.12* %this) nounwind align 2 {
entry:
  %this.addr = alloca %struct.C.12*, align 8
  %arr = alloca [41 x i32], align 16
  %tmp = alloca %struct.C.13, align 1
  store %struct.C.12* %this, %struct.C.12** %this.addr, align 8
  call void @llvm.dbg.declare(metadata !{%struct.C.12** %this.addr}, metadata !1026), !dbg !1027
  %this1 = load %struct.C.12** %this.addr
  call void @llvm.dbg.declare(metadata !{[41 x i32]* %arr}, metadata !1028), !dbg !1033
  %0 = bitcast [41 x i32]* %arr to i8*, !dbg !1033
  call void @llvm.memset.p0i8.i64(i8* %0, i8 0, i64 164, i32 16, i1 false), !dbg !1033
  %arrayidx = getelementptr inbounds [41 x i32]* %arr, i32 0, i64 20, !dbg !1034
  %1 = load i32* %arrayidx, align 4, !dbg !1034
  %call = call i32 @_ZN1CILi20EE1fILi40EEEiv(%struct.C.13* %tmp), !dbg !1034
  %add = add nsw i32 %1, %call, !dbg !1034
  ret i32 %add, !dbg !1034
}

define linkonce_odr i32 @_ZN1CILi20EE1fILi40EEEiv(%struct.C.13* %this) nounwind align 2 {
entry:
  %this.addr = alloca %struct.C.13*, align 8
  %arr = alloca [40 x i32], align 16
  %tmp = alloca %struct.C.13, align 1
  store %struct.C.13* %this, %struct.C.13** %this.addr, align 8
  call void @llvm.dbg.declare(metadata !{%struct.C.13** %this.addr}, metadata !1035), !dbg !1037
  %this1 = load %struct.C.13** %this.addr
  call void @llvm.dbg.declare(metadata !{[40 x i32]* %arr}, metadata !1038), !dbg !1043
  %0 = bitcast [40 x i32]* %arr to i8*, !dbg !1043
  call void @llvm.memset.p0i8.i64(i8* %0, i8 0, i64 160, i32 16, i1 false), !dbg !1043
  %arrayidx = getelementptr inbounds [40 x i32]* %arr, i32 0, i64 20, !dbg !1044
  %1 = load i32* %arrayidx, align 4, !dbg !1044
  %call = call i32 @_ZN1CILi20EE1fILi39EEEiv(%struct.C.13* %tmp), !dbg !1044
  %add = add nsw i32 %1, %call, !dbg !1044
  ret i32 %add, !dbg !1044
}

define linkonce_odr i32 @_ZN1CILi20EE1fILi39EEEiv(%struct.C.13* %this) nounwind align 2 {
entry:
  %this.addr = alloca %struct.C.13*, align 8
  %arr = alloca [39 x i32], align 16
  %tmp = alloca %struct.C.14, align 1
  store %struct.C.13* %this, %struct.C.13** %this.addr, align 8
  call void @llvm.dbg.declare(metadata !{%struct.C.13** %this.addr}, metadata !1045), !dbg !1046
  %this1 = load %struct.C.13** %this.addr
  call void @llvm.dbg.declare(metadata !{[39 x i32]* %arr}, metadata !1047), !dbg !1052
  %0 = bitcast [39 x i32]* %arr to i8*, !dbg !1052
  call void @llvm.memset.p0i8.i64(i8* %0, i8 0, i64 156, i32 16, i1 false), !dbg !1052
  %arrayidx = getelementptr inbounds [39 x i32]* %arr, i32 0, i64 19, !dbg !1053
  %1 = load i32* %arrayidx, align 4, !dbg !1053
  %call = call i32 @_ZN1CILi19EE1fILi38EEEiv(%struct.C.14* %tmp), !dbg !1053
  %add = add nsw i32 %1, %call, !dbg !1053
  ret i32 %add, !dbg !1053
}

define linkonce_odr i32 @_ZN1CILi19EE1fILi38EEEiv(%struct.C.14* %this) nounwind align 2 {
entry:
  %this.addr = alloca %struct.C.14*, align 8
  %arr = alloca [38 x i32], align 16
  %tmp = alloca %struct.C.14, align 1
  store %struct.C.14* %this, %struct.C.14** %this.addr, align 8
  call void @llvm.dbg.declare(metadata !{%struct.C.14** %this.addr}, metadata !1054), !dbg !1056
  %this1 = load %struct.C.14** %this.addr
  call void @llvm.dbg.declare(metadata !{[38 x i32]* %arr}, metadata !1057), !dbg !1062
  %0 = bitcast [38 x i32]* %arr to i8*, !dbg !1062
  call void @llvm.memset.p0i8.i64(i8* %0, i8 0, i64 152, i32 16, i1 false), !dbg !1062
  %arrayidx = getelementptr inbounds [38 x i32]* %arr, i32 0, i64 19, !dbg !1063
  %1 = load i32* %arrayidx, align 4, !dbg !1063
  %call = call i32 @_ZN1CILi19EE1fILi37EEEiv(%struct.C.14* %tmp), !dbg !1063
  %add = add nsw i32 %1, %call, !dbg !1063
  ret i32 %add, !dbg !1063
}

define linkonce_odr i32 @_ZN1CILi19EE1fILi37EEEiv(%struct.C.14* %this) nounwind align 2 {
entry:
  %this.addr = alloca %struct.C.14*, align 8
  %arr = alloca [37 x i32], align 16
  %tmp = alloca %struct.C.15, align 1
  store %struct.C.14* %this, %struct.C.14** %this.addr, align 8
  call void @llvm.dbg.declare(metadata !{%struct.C.14** %this.addr}, metadata !1064), !dbg !1065
  %this1 = load %struct.C.14** %this.addr
  call void @llvm.dbg.declare(metadata !{[37 x i32]* %arr}, metadata !1066), !dbg !1071
  %0 = bitcast [37 x i32]* %arr to i8*, !dbg !1071
  call void @llvm.memset.p0i8.i64(i8* %0, i8 0, i64 148, i32 16, i1 false), !dbg !1071
  %arrayidx = getelementptr inbounds [37 x i32]* %arr, i32 0, i64 18, !dbg !1072
  %1 = load i32* %arrayidx, align 4, !dbg !1072
  %call = call i32 @_ZN1CILi18EE1fILi36EEEiv(%struct.C.15* %tmp), !dbg !1072
  %add = add nsw i32 %1, %call, !dbg !1072
  ret i32 %add, !dbg !1072
}

define linkonce_odr i32 @_ZN1CILi18EE1fILi36EEEiv(%struct.C.15* %this) nounwind align 2 {
entry:
  %this.addr = alloca %struct.C.15*, align 8
  %arr = alloca [36 x i32], align 16
  %tmp = alloca %struct.C.15, align 1
  store %struct.C.15* %this, %struct.C.15** %this.addr, align 8
  call void @llvm.dbg.declare(metadata !{%struct.C.15** %this.addr}, metadata !1073), !dbg !1075
  %this1 = load %struct.C.15** %this.addr
  call void @llvm.dbg.declare(metadata !{[36 x i32]* %arr}, metadata !1076), !dbg !1081
  %0 = bitcast [36 x i32]* %arr to i8*, !dbg !1081
  call void @llvm.memset.p0i8.i64(i8* %0, i8 0, i64 144, i32 16, i1 false), !dbg !1081
  %arrayidx = getelementptr inbounds [36 x i32]* %arr, i32 0, i64 18, !dbg !1082
  %1 = load i32* %arrayidx, align 4, !dbg !1082
  %call = call i32 @_ZN1CILi18EE1fILi35EEEiv(%struct.C.15* %tmp), !dbg !1082
  %add = add nsw i32 %1, %call, !dbg !1082
  ret i32 %add, !dbg !1082
}

define linkonce_odr i32 @_ZN1CILi18EE1fILi35EEEiv(%struct.C.15* %this) nounwind align 2 {
entry:
  %this.addr = alloca %struct.C.15*, align 8
  %arr = alloca [35 x i32], align 16
  %tmp = alloca %struct.C.16, align 1
  store %struct.C.15* %this, %struct.C.15** %this.addr, align 8
  call void @llvm.dbg.declare(metadata !{%struct.C.15** %this.addr}, metadata !1083), !dbg !1084
  %this1 = load %struct.C.15** %this.addr
  call void @llvm.dbg.declare(metadata !{[35 x i32]* %arr}, metadata !1085), !dbg !1090
  %0 = bitcast [35 x i32]* %arr to i8*, !dbg !1090
  call void @llvm.memset.p0i8.i64(i8* %0, i8 0, i64 140, i32 16, i1 false), !dbg !1090
  %arrayidx = getelementptr inbounds [35 x i32]* %arr, i32 0, i64 17, !dbg !1091
  %1 = load i32* %arrayidx, align 4, !dbg !1091
  %call = call i32 @_ZN1CILi17EE1fILi34EEEiv(%struct.C.16* %tmp), !dbg !1091
  %add = add nsw i32 %1, %call, !dbg !1091
  ret i32 %add, !dbg !1091
}

define linkonce_odr i32 @_ZN1CILi17EE1fILi34EEEiv(%struct.C.16* %this) nounwind align 2 {
entry:
  %this.addr = alloca %struct.C.16*, align 8
  %arr = alloca [34 x i32], align 16
  %tmp = alloca %struct.C.16, align 1
  store %struct.C.16* %this, %struct.C.16** %this.addr, align 8
  call void @llvm.dbg.declare(metadata !{%struct.C.16** %this.addr}, metadata !1092), !dbg !1094
  %this1 = load %struct.C.16** %this.addr
  call void @llvm.dbg.declare(metadata !{[34 x i32]* %arr}, metadata !1095), !dbg !1100
  %0 = bitcast [34 x i32]* %arr to i8*, !dbg !1100
  call void @llvm.memset.p0i8.i64(i8* %0, i8 0, i64 136, i32 16, i1 false), !dbg !1100
  %arrayidx = getelementptr inbounds [34 x i32]* %arr, i32 0, i64 17, !dbg !1101
  %1 = load i32* %arrayidx, align 4, !dbg !1101
  %call = call i32 @_ZN1CILi17EE1fILi33EEEiv(%struct.C.16* %tmp), !dbg !1101
  %add = add nsw i32 %1, %call, !dbg !1101
  ret i32 %add, !dbg !1101
}

define linkonce_odr i32 @_ZN1CILi17EE1fILi33EEEiv(%struct.C.16* %this) nounwind align 2 {
entry:
  %this.addr = alloca %struct.C.16*, align 8
  %arr = alloca [33 x i32], align 16
  %tmp = alloca %struct.C.17, align 1
  store %struct.C.16* %this, %struct.C.16** %this.addr, align 8
  call void @llvm.dbg.declare(metadata !{%struct.C.16** %this.addr}, metadata !1102), !dbg !1103
  %this1 = load %struct.C.16** %this.addr
  call void @llvm.dbg.declare(metadata !{[33 x i32]* %arr}, metadata !1104), !dbg !1109
  %0 = bitcast [33 x i32]* %arr to i8*, !dbg !1109
  call void @llvm.memset.p0i8.i64(i8* %0, i8 0, i64 132, i32 16, i1 false), !dbg !1109
  %arrayidx = getelementptr inbounds [33 x i32]* %arr, i32 0, i64 16, !dbg !1110
  %1 = load i32* %arrayidx, align 4, !dbg !1110
  %call = call i32 @_ZN1CILi16EE1fILi32EEEiv(%struct.C.17* %tmp), !dbg !1110
  %add = add nsw i32 %1, %call, !dbg !1110
  ret i32 %add, !dbg !1110
}

define linkonce_odr i32 @_ZN1CILi16EE1fILi32EEEiv(%struct.C.17* %this) nounwind align 2 {
entry:
  %this.addr = alloca %struct.C.17*, align 8
  %arr = alloca [32 x i32], align 16
  %tmp = alloca %struct.C.17, align 1
  store %struct.C.17* %this, %struct.C.17** %this.addr, align 8
  call void @llvm.dbg.declare(metadata !{%struct.C.17** %this.addr}, metadata !1111), !dbg !1113
  %this1 = load %struct.C.17** %this.addr
  call void @llvm.dbg.declare(metadata !{[32 x i32]* %arr}, metadata !1114), !dbg !1119
  %0 = bitcast [32 x i32]* %arr to i8*, !dbg !1119
  call void @llvm.memset.p0i8.i64(i8* %0, i8 0, i64 128, i32 16, i1 false), !dbg !1119
  %arrayidx = getelementptr inbounds [32 x i32]* %arr, i32 0, i64 16, !dbg !1120
  %1 = load i32* %arrayidx, align 4, !dbg !1120
  %call = call i32 @_ZN1CILi16EE1fILi31EEEiv(%struct.C.17* %tmp), !dbg !1120
  %add = add nsw i32 %1, %call, !dbg !1120
  ret i32 %add, !dbg !1120
}

define linkonce_odr i32 @_ZN1CILi16EE1fILi31EEEiv(%struct.C.17* %this) nounwind align 2 {
entry:
  %this.addr = alloca %struct.C.17*, align 8
  %arr = alloca [31 x i32], align 16
  %tmp = alloca %struct.C.18, align 1
  store %struct.C.17* %this, %struct.C.17** %this.addr, align 8
  call void @llvm.dbg.declare(metadata !{%struct.C.17** %this.addr}, metadata !1121), !dbg !1122
  %this1 = load %struct.C.17** %this.addr
  call void @llvm.dbg.declare(metadata !{[31 x i32]* %arr}, metadata !1123), !dbg !1128
  %0 = bitcast [31 x i32]* %arr to i8*, !dbg !1128
  call void @llvm.memset.p0i8.i64(i8* %0, i8 0, i64 124, i32 16, i1 false), !dbg !1128
  %arrayidx = getelementptr inbounds [31 x i32]* %arr, i32 0, i64 15, !dbg !1129
  %1 = load i32* %arrayidx, align 4, !dbg !1129
  %call = call i32 @_ZN1CILi15EE1fILi30EEEiv(%struct.C.18* %tmp), !dbg !1129
  %add = add nsw i32 %1, %call, !dbg !1129
  ret i32 %add, !dbg !1129
}

define linkonce_odr i32 @_ZN1CILi15EE1fILi30EEEiv(%struct.C.18* %this) nounwind align 2 {
entry:
  %this.addr = alloca %struct.C.18*, align 8
  %arr = alloca [30 x i32], align 16
  %tmp = alloca %struct.C.18, align 1
  store %struct.C.18* %this, %struct.C.18** %this.addr, align 8
  call void @llvm.dbg.declare(metadata !{%struct.C.18** %this.addr}, metadata !1130), !dbg !1132
  %this1 = load %struct.C.18** %this.addr
  call void @llvm.dbg.declare(metadata !{[30 x i32]* %arr}, metadata !1133), !dbg !1138
  %0 = bitcast [30 x i32]* %arr to i8*, !dbg !1138
  call void @llvm.memset.p0i8.i64(i8* %0, i8 0, i64 120, i32 16, i1 false), !dbg !1138
  %arrayidx = getelementptr inbounds [30 x i32]* %arr, i32 0, i64 15, !dbg !1139
  %1 = load i32* %arrayidx, align 4, !dbg !1139
  %call = call i32 @_ZN1CILi15EE1fILi29EEEiv(%struct.C.18* %tmp), !dbg !1139
  %add = add nsw i32 %1, %call, !dbg !1139
  ret i32 %add, !dbg !1139
}

define linkonce_odr i32 @_ZN1CILi15EE1fILi29EEEiv(%struct.C.18* %this) nounwind align 2 {
entry:
  %this.addr = alloca %struct.C.18*, align 8
  %arr = alloca [29 x i32], align 16
  %tmp = alloca %struct.C.19, align 1
  store %struct.C.18* %this, %struct.C.18** %this.addr, align 8
  call void @llvm.dbg.declare(metadata !{%struct.C.18** %this.addr}, metadata !1140), !dbg !1141
  %this1 = load %struct.C.18** %this.addr
  call void @llvm.dbg.declare(metadata !{[29 x i32]* %arr}, metadata !1142), !dbg !1147
  %0 = bitcast [29 x i32]* %arr to i8*, !dbg !1147
  call void @llvm.memset.p0i8.i64(i8* %0, i8 0, i64 116, i32 16, i1 false), !dbg !1147
  %arrayidx = getelementptr inbounds [29 x i32]* %arr, i32 0, i64 14, !dbg !1148
  %1 = load i32* %arrayidx, align 4, !dbg !1148
  %call = call i32 @_ZN1CILi14EE1fILi28EEEiv(%struct.C.19* %tmp), !dbg !1148
  %add = add nsw i32 %1, %call, !dbg !1148
  ret i32 %add, !dbg !1148
}

define linkonce_odr i32 @_ZN1CILi14EE1fILi28EEEiv(%struct.C.19* %this) nounwind align 2 {
entry:
  %this.addr = alloca %struct.C.19*, align 8
  %arr = alloca [28 x i32], align 16
  %tmp = alloca %struct.C.19, align 1
  store %struct.C.19* %this, %struct.C.19** %this.addr, align 8
  call void @llvm.dbg.declare(metadata !{%struct.C.19** %this.addr}, metadata !1149), !dbg !1151
  %this1 = load %struct.C.19** %this.addr
  call void @llvm.dbg.declare(metadata !{[28 x i32]* %arr}, metadata !1152), !dbg !1157
  %0 = bitcast [28 x i32]* %arr to i8*, !dbg !1157
  call void @llvm.memset.p0i8.i64(i8* %0, i8 0, i64 112, i32 16, i1 false), !dbg !1157
  %arrayidx = getelementptr inbounds [28 x i32]* %arr, i32 0, i64 14, !dbg !1158
  %1 = load i32* %arrayidx, align 4, !dbg !1158
  %call = call i32 @_ZN1CILi14EE1fILi27EEEiv(%struct.C.19* %tmp), !dbg !1158
  %add = add nsw i32 %1, %call, !dbg !1158
  ret i32 %add, !dbg !1158
}

define linkonce_odr i32 @_ZN1CILi14EE1fILi27EEEiv(%struct.C.19* %this) nounwind align 2 {
entry:
  %this.addr = alloca %struct.C.19*, align 8
  %arr = alloca [27 x i32], align 16
  %tmp = alloca %struct.C.20, align 1
  store %struct.C.19* %this, %struct.C.19** %this.addr, align 8
  call void @llvm.dbg.declare(metadata !{%struct.C.19** %this.addr}, metadata !1159), !dbg !1160
  %this1 = load %struct.C.19** %this.addr
  call void @llvm.dbg.declare(metadata !{[27 x i32]* %arr}, metadata !1161), !dbg !1166
  %0 = bitcast [27 x i32]* %arr to i8*, !dbg !1166
  call void @llvm.memset.p0i8.i64(i8* %0, i8 0, i64 108, i32 16, i1 false), !dbg !1166
  %arrayidx = getelementptr inbounds [27 x i32]* %arr, i32 0, i64 13, !dbg !1167
  %1 = load i32* %arrayidx, align 4, !dbg !1167
  %call = call i32 @_ZN1CILi13EE1fILi26EEEiv(%struct.C.20* %tmp), !dbg !1167
  %add = add nsw i32 %1, %call, !dbg !1167
  ret i32 %add, !dbg !1167
}

define linkonce_odr i32 @_ZN1CILi13EE1fILi26EEEiv(%struct.C.20* %this) nounwind align 2 {
entry:
  %this.addr = alloca %struct.C.20*, align 8
  %arr = alloca [26 x i32], align 16
  %tmp = alloca %struct.C.20, align 1
  store %struct.C.20* %this, %struct.C.20** %this.addr, align 8
  call void @llvm.dbg.declare(metadata !{%struct.C.20** %this.addr}, metadata !1168), !dbg !1170
  %this1 = load %struct.C.20** %this.addr
  call void @llvm.dbg.declare(metadata !{[26 x i32]* %arr}, metadata !1171), !dbg !1176
  %0 = bitcast [26 x i32]* %arr to i8*, !dbg !1176
  call void @llvm.memset.p0i8.i64(i8* %0, i8 0, i64 104, i32 16, i1 false), !dbg !1176
  %arrayidx = getelementptr inbounds [26 x i32]* %arr, i32 0, i64 13, !dbg !1177
  %1 = load i32* %arrayidx, align 4, !dbg !1177
  %call = call i32 @_ZN1CILi13EE1fILi25EEEiv(%struct.C.20* %tmp), !dbg !1177
  %add = add nsw i32 %1, %call, !dbg !1177
  ret i32 %add, !dbg !1177
}

define linkonce_odr i32 @_ZN1CILi13EE1fILi25EEEiv(%struct.C.20* %this) nounwind align 2 {
entry:
  %this.addr = alloca %struct.C.20*, align 8
  %arr = alloca [25 x i32], align 16
  %tmp = alloca %struct.C.21, align 1
  store %struct.C.20* %this, %struct.C.20** %this.addr, align 8
  call void @llvm.dbg.declare(metadata !{%struct.C.20** %this.addr}, metadata !1178), !dbg !1179
  %this1 = load %struct.C.20** %this.addr
  call void @llvm.dbg.declare(metadata !{[25 x i32]* %arr}, metadata !1180), !dbg !1185
  %0 = bitcast [25 x i32]* %arr to i8*, !dbg !1185
  call void @llvm.memset.p0i8.i64(i8* %0, i8 0, i64 100, i32 16, i1 false), !dbg !1185
  %arrayidx = getelementptr inbounds [25 x i32]* %arr, i32 0, i64 12, !dbg !1186
  %1 = load i32* %arrayidx, align 4, !dbg !1186
  %call = call i32 @_ZN1CILi12EE1fILi24EEEiv(%struct.C.21* %tmp), !dbg !1186
  %add = add nsw i32 %1, %call, !dbg !1186
  ret i32 %add, !dbg !1186
}

define linkonce_odr i32 @_ZN1CILi12EE1fILi24EEEiv(%struct.C.21* %this) nounwind align 2 {
entry:
  %this.addr = alloca %struct.C.21*, align 8
  %arr = alloca [24 x i32], align 16
  %tmp = alloca %struct.C.21, align 1
  store %struct.C.21* %this, %struct.C.21** %this.addr, align 8
  call void @llvm.dbg.declare(metadata !{%struct.C.21** %this.addr}, metadata !1187), !dbg !1189
  %this1 = load %struct.C.21** %this.addr
  call void @llvm.dbg.declare(metadata !{[24 x i32]* %arr}, metadata !1190), !dbg !1195
  %0 = bitcast [24 x i32]* %arr to i8*, !dbg !1195
  call void @llvm.memset.p0i8.i64(i8* %0, i8 0, i64 96, i32 16, i1 false), !dbg !1195
  %arrayidx = getelementptr inbounds [24 x i32]* %arr, i32 0, i64 12, !dbg !1196
  %1 = load i32* %arrayidx, align 4, !dbg !1196
  %call = call i32 @_ZN1CILi12EE1fILi23EEEiv(%struct.C.21* %tmp), !dbg !1196
  %add = add nsw i32 %1, %call, !dbg !1196
  ret i32 %add, !dbg !1196
}

define linkonce_odr i32 @_ZN1CILi12EE1fILi23EEEiv(%struct.C.21* %this) nounwind align 2 {
entry:
  %this.addr = alloca %struct.C.21*, align 8
  %arr = alloca [23 x i32], align 16
  %tmp = alloca %struct.C.22, align 1
  store %struct.C.21* %this, %struct.C.21** %this.addr, align 8
  call void @llvm.dbg.declare(metadata !{%struct.C.21** %this.addr}, metadata !1197), !dbg !1198
  %this1 = load %struct.C.21** %this.addr
  call void @llvm.dbg.declare(metadata !{[23 x i32]* %arr}, metadata !1199), !dbg !1204
  %0 = bitcast [23 x i32]* %arr to i8*, !dbg !1204
  call void @llvm.memset.p0i8.i64(i8* %0, i8 0, i64 92, i32 16, i1 false), !dbg !1204
  %arrayidx = getelementptr inbounds [23 x i32]* %arr, i32 0, i64 11, !dbg !1205
  %1 = load i32* %arrayidx, align 4, !dbg !1205
  %call = call i32 @_ZN1CILi11EE1fILi22EEEiv(%struct.C.22* %tmp), !dbg !1205
  %add = add nsw i32 %1, %call, !dbg !1205
  ret i32 %add, !dbg !1205
}

define linkonce_odr i32 @_ZN1CILi11EE1fILi22EEEiv(%struct.C.22* %this) nounwind align 2 {
entry:
  %this.addr = alloca %struct.C.22*, align 8
  %arr = alloca [22 x i32], align 16
  %tmp = alloca %struct.C.22, align 1
  store %struct.C.22* %this, %struct.C.22** %this.addr, align 8
  call void @llvm.dbg.declare(metadata !{%struct.C.22** %this.addr}, metadata !1206), !dbg !1208
  %this1 = load %struct.C.22** %this.addr
  call void @llvm.dbg.declare(metadata !{[22 x i32]* %arr}, metadata !1209), !dbg !1214
  %0 = bitcast [22 x i32]* %arr to i8*, !dbg !1214
  call void @llvm.memset.p0i8.i64(i8* %0, i8 0, i64 88, i32 16, i1 false), !dbg !1214
  %arrayidx = getelementptr inbounds [22 x i32]* %arr, i32 0, i64 11, !dbg !1215
  %1 = load i32* %arrayidx, align 4, !dbg !1215
  %call = call i32 @_ZN1CILi11EE1fILi21EEEiv(%struct.C.22* %tmp), !dbg !1215
  %add = add nsw i32 %1, %call, !dbg !1215
  ret i32 %add, !dbg !1215
}

define linkonce_odr i32 @_ZN1CILi11EE1fILi21EEEiv(%struct.C.22* %this) nounwind align 2 {
entry:
  %this.addr = alloca %struct.C.22*, align 8
  %arr = alloca [21 x i32], align 16
  %tmp = alloca %struct.C.23, align 1
  store %struct.C.22* %this, %struct.C.22** %this.addr, align 8
  call void @llvm.dbg.declare(metadata !{%struct.C.22** %this.addr}, metadata !1216), !dbg !1217
  %this1 = load %struct.C.22** %this.addr
  call void @llvm.dbg.declare(metadata !{[21 x i32]* %arr}, metadata !1218), !dbg !1223
  %0 = bitcast [21 x i32]* %arr to i8*, !dbg !1223
  call void @llvm.memset.p0i8.i64(i8* %0, i8 0, i64 84, i32 16, i1 false), !dbg !1223
  %arrayidx = getelementptr inbounds [21 x i32]* %arr, i32 0, i64 10, !dbg !1224
  %1 = load i32* %arrayidx, align 4, !dbg !1224
  %call = call i32 @_ZN1CILi10EE1fILi20EEEiv(%struct.C.23* %tmp), !dbg !1224
  %add = add nsw i32 %1, %call, !dbg !1224
  ret i32 %add, !dbg !1224
}

define linkonce_odr i32 @_ZN1CILi10EE1fILi20EEEiv(%struct.C.23* %this) nounwind align 2 {
entry:
  %this.addr = alloca %struct.C.23*, align 8
  %arr = alloca [20 x i32], align 16
  %tmp = alloca %struct.C.23, align 1
  store %struct.C.23* %this, %struct.C.23** %this.addr, align 8
  call void @llvm.dbg.declare(metadata !{%struct.C.23** %this.addr}, metadata !1225), !dbg !1227
  %this1 = load %struct.C.23** %this.addr
  call void @llvm.dbg.declare(metadata !{[20 x i32]* %arr}, metadata !1228), !dbg !1233
  %0 = bitcast [20 x i32]* %arr to i8*, !dbg !1233
  call void @llvm.memset.p0i8.i64(i8* %0, i8 0, i64 80, i32 16, i1 false), !dbg !1233
  %arrayidx = getelementptr inbounds [20 x i32]* %arr, i32 0, i64 10, !dbg !1234
  %1 = load i32* %arrayidx, align 4, !dbg !1234
  %call = call i32 @_ZN1CILi10EE1fILi19EEEiv(%struct.C.23* %tmp), !dbg !1234
  %add = add nsw i32 %1, %call, !dbg !1234
  ret i32 %add, !dbg !1234
}

define linkonce_odr i32 @_ZN1CILi10EE1fILi19EEEiv(%struct.C.23* %this) nounwind align 2 {
entry:
  %this.addr = alloca %struct.C.23*, align 8
  %arr = alloca [19 x i32], align 16
  %tmp = alloca %struct.C.24, align 1
  store %struct.C.23* %this, %struct.C.23** %this.addr, align 8
  call void @llvm.dbg.declare(metadata !{%struct.C.23** %this.addr}, metadata !1235), !dbg !1236
  %this1 = load %struct.C.23** %this.addr
  call void @llvm.dbg.declare(metadata !{[19 x i32]* %arr}, metadata !1237), !dbg !1242
  %0 = bitcast [19 x i32]* %arr to i8*, !dbg !1242
  call void @llvm.memset.p0i8.i64(i8* %0, i8 0, i64 76, i32 16, i1 false), !dbg !1242
  %arrayidx = getelementptr inbounds [19 x i32]* %arr, i32 0, i64 9, !dbg !1243
  %1 = load i32* %arrayidx, align 4, !dbg !1243
  %call = call i32 @_ZN1CILi9EE1fILi18EEEiv(%struct.C.24* %tmp), !dbg !1243
  %add = add nsw i32 %1, %call, !dbg !1243
  ret i32 %add, !dbg !1243
}

define linkonce_odr i32 @_ZN1CILi9EE1fILi18EEEiv(%struct.C.24* %this) nounwind align 2 {
entry:
  %this.addr = alloca %struct.C.24*, align 8
  %arr = alloca [18 x i32], align 16
  %tmp = alloca %struct.C.24, align 1
  store %struct.C.24* %this, %struct.C.24** %this.addr, align 8
  call void @llvm.dbg.declare(metadata !{%struct.C.24** %this.addr}, metadata !1244), !dbg !1246
  %this1 = load %struct.C.24** %this.addr
  call void @llvm.dbg.declare(metadata !{[18 x i32]* %arr}, metadata !1247), !dbg !1252
  %0 = bitcast [18 x i32]* %arr to i8*, !dbg !1252
  call void @llvm.memset.p0i8.i64(i8* %0, i8 0, i64 72, i32 16, i1 false), !dbg !1252
  %arrayidx = getelementptr inbounds [18 x i32]* %arr, i32 0, i64 9, !dbg !1253
  %1 = load i32* %arrayidx, align 4, !dbg !1253
  %call = call i32 @_ZN1CILi9EE1fILi17EEEiv(%struct.C.24* %tmp), !dbg !1253
  %add = add nsw i32 %1, %call, !dbg !1253
  ret i32 %add, !dbg !1253
}

define linkonce_odr i32 @_ZN1CILi9EE1fILi17EEEiv(%struct.C.24* %this) nounwind align 2 {
entry:
  %this.addr = alloca %struct.C.24*, align 8
  %arr = alloca [17 x i32], align 16
  %tmp = alloca %struct.C.25, align 1
  store %struct.C.24* %this, %struct.C.24** %this.addr, align 8
  call void @llvm.dbg.declare(metadata !{%struct.C.24** %this.addr}, metadata !1254), !dbg !1255
  %this1 = load %struct.C.24** %this.addr
  call void @llvm.dbg.declare(metadata !{[17 x i32]* %arr}, metadata !1256), !dbg !1261
  %0 = bitcast [17 x i32]* %arr to i8*, !dbg !1261
  call void @llvm.memset.p0i8.i64(i8* %0, i8 0, i64 68, i32 16, i1 false), !dbg !1261
  %arrayidx = getelementptr inbounds [17 x i32]* %arr, i32 0, i64 8, !dbg !1262
  %1 = load i32* %arrayidx, align 4, !dbg !1262
  %call = call i32 @_ZN1CILi8EE1fILi16EEEiv(%struct.C.25* %tmp), !dbg !1262
  %add = add nsw i32 %1, %call, !dbg !1262
  ret i32 %add, !dbg !1262
}

define linkonce_odr i32 @_ZN1CILi8EE1fILi16EEEiv(%struct.C.25* %this) nounwind align 2 {
entry:
  %this.addr = alloca %struct.C.25*, align 8
  %arr = alloca [16 x i32], align 16
  %tmp = alloca %struct.C.25, align 1
  store %struct.C.25* %this, %struct.C.25** %this.addr, align 8
  call void @llvm.dbg.declare(metadata !{%struct.C.25** %this.addr}, metadata !1263), !dbg !1265
  %this1 = load %struct.C.25** %this.addr
  call void @llvm.dbg.declare(metadata !{[16 x i32]* %arr}, metadata !1266), !dbg !1271
  %0 = bitcast [16 x i32]* %arr to i8*, !dbg !1271
  call void @llvm.memset.p0i8.i64(i8* %0, i8 0, i64 64, i32 16, i1 false), !dbg !1271
  %arrayidx = getelementptr inbounds [16 x i32]* %arr, i32 0, i64 8, !dbg !1272
  %1 = load i32* %arrayidx, align 4, !dbg !1272
  %call = call i32 @_ZN1CILi8EE1fILi15EEEiv(%struct.C.25* %tmp), !dbg !1272
  %add = add nsw i32 %1, %call, !dbg !1272
  ret i32 %add, !dbg !1272
}

define linkonce_odr i32 @_ZN1CILi8EE1fILi15EEEiv(%struct.C.25* %this) nounwind align 2 {
entry:
  %this.addr = alloca %struct.C.25*, align 8
  %arr = alloca [15 x i32], align 16
  %tmp = alloca %struct.C.26, align 1
  store %struct.C.25* %this, %struct.C.25** %this.addr, align 8
  call void @llvm.dbg.declare(metadata !{%struct.C.25** %this.addr}, metadata !1273), !dbg !1274
  %this1 = load %struct.C.25** %this.addr
  call void @llvm.dbg.declare(metadata !{[15 x i32]* %arr}, metadata !1275), !dbg !1280
  %0 = bitcast [15 x i32]* %arr to i8*, !dbg !1280
  call void @llvm.memset.p0i8.i64(i8* %0, i8 0, i64 60, i32 16, i1 false), !dbg !1280
  %arrayidx = getelementptr inbounds [15 x i32]* %arr, i32 0, i64 7, !dbg !1281
  %1 = load i32* %arrayidx, align 4, !dbg !1281
  %call = call i32 @_ZN1CILi7EE1fILi14EEEiv(%struct.C.26* %tmp), !dbg !1281
  %add = add nsw i32 %1, %call, !dbg !1281
  ret i32 %add, !dbg !1281
}

define linkonce_odr i32 @_ZN1CILi7EE1fILi14EEEiv(%struct.C.26* %this) nounwind align 2 {
entry:
  %this.addr = alloca %struct.C.26*, align 8
  %arr = alloca [14 x i32], align 16
  %tmp = alloca %struct.C.26, align 1
  store %struct.C.26* %this, %struct.C.26** %this.addr, align 8
  call void @llvm.dbg.declare(metadata !{%struct.C.26** %this.addr}, metadata !1282), !dbg !1284
  %this1 = load %struct.C.26** %this.addr
  call void @llvm.dbg.declare(metadata !{[14 x i32]* %arr}, metadata !1285), !dbg !1290
  %0 = bitcast [14 x i32]* %arr to i8*, !dbg !1290
  call void @llvm.memset.p0i8.i64(i8* %0, i8 0, i64 56, i32 16, i1 false), !dbg !1290
  %arrayidx = getelementptr inbounds [14 x i32]* %arr, i32 0, i64 7, !dbg !1291
  %1 = load i32* %arrayidx, align 4, !dbg !1291
  %call = call i32 @_ZN1CILi7EE1fILi13EEEiv(%struct.C.26* %tmp), !dbg !1291
  %add = add nsw i32 %1, %call, !dbg !1291
  ret i32 %add, !dbg !1291
}

define linkonce_odr i32 @_ZN1CILi7EE1fILi13EEEiv(%struct.C.26* %this) nounwind align 2 {
entry:
  %this.addr = alloca %struct.C.26*, align 8
  %arr = alloca [13 x i32], align 16
  %tmp = alloca %struct.C.27, align 1
  store %struct.C.26* %this, %struct.C.26** %this.addr, align 8
  call void @llvm.dbg.declare(metadata !{%struct.C.26** %this.addr}, metadata !1292), !dbg !1293
  %this1 = load %struct.C.26** %this.addr
  call void @llvm.dbg.declare(metadata !{[13 x i32]* %arr}, metadata !1294), !dbg !1299
  %0 = bitcast [13 x i32]* %arr to i8*, !dbg !1299
  call void @llvm.memset.p0i8.i64(i8* %0, i8 0, i64 52, i32 16, i1 false), !dbg !1299
  %arrayidx = getelementptr inbounds [13 x i32]* %arr, i32 0, i64 6, !dbg !1300
  %1 = load i32* %arrayidx, align 4, !dbg !1300
  %call = call i32 @_ZN1CILi6EE1fILi12EEEiv(%struct.C.27* %tmp), !dbg !1300
  %add = add nsw i32 %1, %call, !dbg !1300
  ret i32 %add, !dbg !1300
}

define linkonce_odr i32 @_ZN1CILi6EE1fILi12EEEiv(%struct.C.27* %this) nounwind align 2 {
entry:
  %this.addr = alloca %struct.C.27*, align 8
  %arr = alloca [12 x i32], align 16
  %tmp = alloca %struct.C.27, align 1
  store %struct.C.27* %this, %struct.C.27** %this.addr, align 8
  call void @llvm.dbg.declare(metadata !{%struct.C.27** %this.addr}, metadata !1301), !dbg !1303
  %this1 = load %struct.C.27** %this.addr
  call void @llvm.dbg.declare(metadata !{[12 x i32]* %arr}, metadata !1304), !dbg !1309
  %0 = bitcast [12 x i32]* %arr to i8*, !dbg !1309
  call void @llvm.memset.p0i8.i64(i8* %0, i8 0, i64 48, i32 16, i1 false), !dbg !1309
  %arrayidx = getelementptr inbounds [12 x i32]* %arr, i32 0, i64 6, !dbg !1310
  %1 = load i32* %arrayidx, align 4, !dbg !1310
  %call = call i32 @_ZN1CILi6EE1fILi11EEEiv(%struct.C.27* %tmp), !dbg !1310
  %add = add nsw i32 %1, %call, !dbg !1310
  ret i32 %add, !dbg !1310
}

define linkonce_odr i32 @_ZN1CILi6EE1fILi11EEEiv(%struct.C.27* %this) nounwind align 2 {
entry:
  %this.addr = alloca %struct.C.27*, align 8
  %arr = alloca [11 x i32], align 16
  %tmp = alloca %struct.C.28, align 1
  store %struct.C.27* %this, %struct.C.27** %this.addr, align 8
  call void @llvm.dbg.declare(metadata !{%struct.C.27** %this.addr}, metadata !1311), !dbg !1312
  %this1 = load %struct.C.27** %this.addr
  call void @llvm.dbg.declare(metadata !{[11 x i32]* %arr}, metadata !1313), !dbg !1318
  %0 = bitcast [11 x i32]* %arr to i8*, !dbg !1318
  call void @llvm.memset.p0i8.i64(i8* %0, i8 0, i64 44, i32 16, i1 false), !dbg !1318
  %arrayidx = getelementptr inbounds [11 x i32]* %arr, i32 0, i64 5, !dbg !1319
  %1 = load i32* %arrayidx, align 4, !dbg !1319
  %call = call i32 @_ZN1CILi5EE1fILi10EEEiv(%struct.C.28* %tmp), !dbg !1319
  %add = add nsw i32 %1, %call, !dbg !1319
  ret i32 %add, !dbg !1319
}

define linkonce_odr i32 @_ZN1CILi5EE1fILi10EEEiv(%struct.C.28* %this) nounwind align 2 {
entry:
  %this.addr = alloca %struct.C.28*, align 8
  %arr = alloca [10 x i32], align 16
  %tmp = alloca %struct.C.28, align 1
  store %struct.C.28* %this, %struct.C.28** %this.addr, align 8
  call void @llvm.dbg.declare(metadata !{%struct.C.28** %this.addr}, metadata !1320), !dbg !1322
  %this1 = load %struct.C.28** %this.addr
  call void @llvm.dbg.declare(metadata !{[10 x i32]* %arr}, metadata !1323), !dbg !1328
  %0 = bitcast [10 x i32]* %arr to i8*, !dbg !1328
  call void @llvm.memset.p0i8.i64(i8* %0, i8 0, i64 40, i32 16, i1 false), !dbg !1328
  %arrayidx = getelementptr inbounds [10 x i32]* %arr, i32 0, i64 5, !dbg !1329
  %1 = load i32* %arrayidx, align 4, !dbg !1329
  %call = call i32 @_ZN1CILi5EE1fILi9EEEiv(%struct.C.28* %tmp), !dbg !1329
  %add = add nsw i32 %1, %call, !dbg !1329
  ret i32 %add, !dbg !1329
}

define linkonce_odr i32 @_ZN1CILi5EE1fILi9EEEiv(%struct.C.28* %this) nounwind align 2 {
entry:
  %this.addr = alloca %struct.C.28*, align 8
  %arr = alloca [9 x i32], align 16
  %tmp = alloca %struct.C.29, align 1
  store %struct.C.28* %this, %struct.C.28** %this.addr, align 8
  call void @llvm.dbg.declare(metadata !{%struct.C.28** %this.addr}, metadata !1330), !dbg !1331
  %this1 = load %struct.C.28** %this.addr
  call void @llvm.dbg.declare(metadata !{[9 x i32]* %arr}, metadata !1332), !dbg !1337
  %0 = bitcast [9 x i32]* %arr to i8*, !dbg !1337
  call void @llvm.memset.p0i8.i64(i8* %0, i8 0, i64 36, i32 16, i1 false), !dbg !1337
  %arrayidx = getelementptr inbounds [9 x i32]* %arr, i32 0, i64 4, !dbg !1338
  %1 = load i32* %arrayidx, align 4, !dbg !1338
  %call = call i32 @_ZN1CILi4EE1fILi8EEEiv(%struct.C.29* %tmp), !dbg !1338
  %add = add nsw i32 %1, %call, !dbg !1338
  ret i32 %add, !dbg !1338
}

define linkonce_odr i32 @_ZN1CILi4EE1fILi8EEEiv(%struct.C.29* %this) nounwind align 2 {
entry:
  %this.addr = alloca %struct.C.29*, align 8
  %arr = alloca [8 x i32], align 16
  %tmp = alloca %struct.C.29, align 1
  store %struct.C.29* %this, %struct.C.29** %this.addr, align 8
  call void @llvm.dbg.declare(metadata !{%struct.C.29** %this.addr}, metadata !1339), !dbg !1341
  %this1 = load %struct.C.29** %this.addr
  call void @llvm.dbg.declare(metadata !{[8 x i32]* %arr}, metadata !1342), !dbg !1347
  %0 = bitcast [8 x i32]* %arr to i8*, !dbg !1347
  call void @llvm.memset.p0i8.i64(i8* %0, i8 0, i64 32, i32 16, i1 false), !dbg !1347
  %arrayidx = getelementptr inbounds [8 x i32]* %arr, i32 0, i64 4, !dbg !1348
  %1 = load i32* %arrayidx, align 4, !dbg !1348
  %call = call i32 @_ZN1CILi4EE1fILi7EEEiv(%struct.C.29* %tmp), !dbg !1348
  %add = add nsw i32 %1, %call, !dbg !1348
  ret i32 %add, !dbg !1348
}

define linkonce_odr i32 @_ZN1CILi4EE1fILi7EEEiv(%struct.C.29* %this) nounwind align 2 {
entry:
  %this.addr = alloca %struct.C.29*, align 8
  %arr = alloca [7 x i32], align 16
  %tmp = alloca %struct.C.30, align 1
  store %struct.C.29* %this, %struct.C.29** %this.addr, align 8
  call void @llvm.dbg.declare(metadata !{%struct.C.29** %this.addr}, metadata !1349), !dbg !1350
  %this1 = load %struct.C.29** %this.addr
  call void @llvm.dbg.declare(metadata !{[7 x i32]* %arr}, metadata !1351), !dbg !1356
  %0 = bitcast [7 x i32]* %arr to i8*, !dbg !1356
  call void @llvm.memset.p0i8.i64(i8* %0, i8 0, i64 28, i32 16, i1 false), !dbg !1356
  %arrayidx = getelementptr inbounds [7 x i32]* %arr, i32 0, i64 3, !dbg !1357
  %1 = load i32* %arrayidx, align 4, !dbg !1357
  %call = call i32 @_ZN1CILi3EE1fILi6EEEiv(%struct.C.30* %tmp), !dbg !1357
  %add = add nsw i32 %1, %call, !dbg !1357
  ret i32 %add, !dbg !1357
}

define linkonce_odr i32 @_ZN1CILi3EE1fILi6EEEiv(%struct.C.30* %this) nounwind align 2 {
entry:
  %this.addr = alloca %struct.C.30*, align 8
  %arr = alloca [6 x i32], align 16
  %tmp = alloca %struct.C.30, align 1
  store %struct.C.30* %this, %struct.C.30** %this.addr, align 8
  call void @llvm.dbg.declare(metadata !{%struct.C.30** %this.addr}, metadata !1358), !dbg !1360
  %this1 = load %struct.C.30** %this.addr
  call void @llvm.dbg.declare(metadata !{[6 x i32]* %arr}, metadata !1361), !dbg !1366
  %0 = bitcast [6 x i32]* %arr to i8*, !dbg !1366
  call void @llvm.memset.p0i8.i64(i8* %0, i8 0, i64 24, i32 16, i1 false), !dbg !1366
  %arrayidx = getelementptr inbounds [6 x i32]* %arr, i32 0, i64 3, !dbg !1367
  %1 = load i32* %arrayidx, align 4, !dbg !1367
  %call = call i32 @_ZN1CILi3EE1fILi5EEEiv(%struct.C.30* %tmp), !dbg !1367
  %add = add nsw i32 %1, %call, !dbg !1367
  ret i32 %add, !dbg !1367
}

define linkonce_odr i32 @_ZN1CILi3EE1fILi5EEEiv(%struct.C.30* %this) nounwind align 2 {
entry:
  %this.addr = alloca %struct.C.30*, align 8
  %arr = alloca [5 x i32], align 16
  %tmp = alloca %struct.C.31, align 1
  store %struct.C.30* %this, %struct.C.30** %this.addr, align 8
  call void @llvm.dbg.declare(metadata !{%struct.C.30** %this.addr}, metadata !1368), !dbg !1369
  %this1 = load %struct.C.30** %this.addr
  call void @llvm.dbg.declare(metadata !{[5 x i32]* %arr}, metadata !1370), !dbg !1375
  %0 = bitcast [5 x i32]* %arr to i8*, !dbg !1375
  call void @llvm.memset.p0i8.i64(i8* %0, i8 0, i64 20, i32 16, i1 false), !dbg !1375
  %arrayidx = getelementptr inbounds [5 x i32]* %arr, i32 0, i64 2, !dbg !1376
  %1 = load i32* %arrayidx, align 4, !dbg !1376
  %call = call i32 @_ZN1CILi2EE1fILi4EEEiv(%struct.C.31* %tmp), !dbg !1376
  %add = add nsw i32 %1, %call, !dbg !1376
  ret i32 %add, !dbg !1376
}

define linkonce_odr i32 @_ZN1CILi2EE1fILi4EEEiv(%struct.C.31* %this) nounwind align 2 {
entry:
  %this.addr = alloca %struct.C.31*, align 8
  %arr = alloca [4 x i32], align 16
  %tmp = alloca %struct.C.31, align 1
  store %struct.C.31* %this, %struct.C.31** %this.addr, align 8
  call void @llvm.dbg.declare(metadata !{%struct.C.31** %this.addr}, metadata !1377), !dbg !1379
  %this1 = load %struct.C.31** %this.addr
  call void @llvm.dbg.declare(metadata !{[4 x i32]* %arr}, metadata !1380), !dbg !1385
  %0 = bitcast [4 x i32]* %arr to i8*, !dbg !1385
  call void @llvm.memset.p0i8.i64(i8* %0, i8 0, i64 16, i32 16, i1 false), !dbg !1385
  %arrayidx = getelementptr inbounds [4 x i32]* %arr, i32 0, i64 2, !dbg !1386
  %1 = load i32* %arrayidx, align 4, !dbg !1386
  %call = call i32 @_ZN1CILi2EE1fILi3EEEiv(%struct.C.31* %tmp), !dbg !1386
  %add = add nsw i32 %1, %call, !dbg !1386
  ret i32 %add, !dbg !1386
}

define linkonce_odr i32 @_ZN1CILi2EE1fILi3EEEiv(%struct.C.31* %this) nounwind align 2 {
entry:
  %this.addr = alloca %struct.C.31*, align 8
  %arr = alloca [3 x i32], align 4
  %tmp = alloca %struct.C.0, align 1
  store %struct.C.31* %this, %struct.C.31** %this.addr, align 8
  call void @llvm.dbg.declare(metadata !{%struct.C.31** %this.addr}, metadata !1387), !dbg !1388
  %this1 = load %struct.C.31** %this.addr
  call void @llvm.dbg.declare(metadata !{[3 x i32]* %arr}, metadata !1389), !dbg !1394
  %0 = bitcast [3 x i32]* %arr to i8*, !dbg !1394
  call void @llvm.memset.p0i8.i64(i8* %0, i8 0, i64 12, i32 4, i1 false), !dbg !1394
  %arrayidx = getelementptr inbounds [3 x i32]* %arr, i32 0, i64 1, !dbg !1395
  %1 = load i32* %arrayidx, align 4, !dbg !1395
  %call = call i32 @_ZN1CILi1EE1fILi2EEEiv(%struct.C.0* %tmp), !dbg !1395
  %add = add nsw i32 %1, %call, !dbg !1395
  ret i32 %add, !dbg !1395
}

define linkonce_odr i32 @_ZN1CILi1EE1fILi2EEEiv(%struct.C.0* %this) nounwind align 2 {
entry:
  %this.addr = alloca %struct.C.0*, align 8
  %arr = alloca [2 x i32], align 4
  %tmp = alloca %struct.C.0, align 1
  store %struct.C.0* %this, %struct.C.0** %this.addr, align 8
  call void @llvm.dbg.declare(metadata !{%struct.C.0** %this.addr}, metadata !1396), !dbg !1397
  %this1 = load %struct.C.0** %this.addr
  call void @llvm.dbg.declare(metadata !{[2 x i32]* %arr}, metadata !1398), !dbg !1403
  %0 = bitcast [2 x i32]* %arr to i8*, !dbg !1403
  call void @llvm.memset.p0i8.i64(i8* %0, i8 0, i64 8, i32 4, i1 false), !dbg !1403
  %arrayidx = getelementptr inbounds [2 x i32]* %arr, i32 0, i64 1, !dbg !1404
  %1 = load i32* %arrayidx, align 4, !dbg !1404
  %call = call i32 @_ZN1CILi1EE1fILi1EEEiv(%struct.C.0* %tmp), !dbg !1404
  %add = add nsw i32 %1, %call, !dbg !1404
  ret i32 %add, !dbg !1404
}

define internal void @_GLOBAL__I_a() nounwind section ".text.startup" {
entry:
  call void @__cxx_global_var_init(), !dbg !1405
  ret void, !dbg !1405
}

!llvm.dbg.cu = !{!0}

!0 = metadata !{i32 786449, i32 0, i32 4, metadata !"/home/jazouani/llvm/llvm-3.2/tools/clang/test/CodeGenCXX/<unknown>", metadata !"/home/jazouani/llvm/build/tools/clang/test/CodeGenCXX", metadata !"clang version 3.2 (tags/RELEASE_32/final)", i1 true, i1 false, metadata !"", i32 0, metadata !1, metadata !1, metadata !3, metadata !785} ; [ DW_TAG_compile_unit ] [/home/jazouani/llvm/build/tools/clang/test/CodeGenCXX//home/jazouani/llvm/llvm-3.2/tools/clang/test/CodeGenCXX/<unknown>] [DW_LANG_C_plus_plus]
!1 = metadata !{metadata !2}
!2 = metadata !{i32 0}
!3 = metadata !{metadata !4}
!4 = metadata !{metadata !5, metadata !20, metadata !23, metadata !34, metadata !35, metadata !38, metadata !41, metadata !59, metadata !82, metadata !83, metadata !106, metadata !107, metadata !130, metadata !131, metadata !154, metadata !155, metadata !178, metadata !179, metadata !202, metadata !203, metadata !226, metadata !227, metadata !250, metadata !251, metadata !274, metadata !275, metadata !298, metadata !299, metadata !322, metadata !323, metadata !346, metadata !347, metadata !370, metadata !371, metadata !394, metadata !395, metadata !418, metadata !419, metadata !442, metadata !443, metadata !466, metadata !467, metadata !490, metadata !491, metadata !514, metadata !515, metadata !538, metadata !539, metadata !562, metadata !563, metadata !586, metadata !587, metadata !610, metadata !611, metadata !634, metadata !635, metadata !658, metadata !659, metadata !682, metadata !683, metadata !706, metadata !707, metadata !730, metadata !731, metadata !754, metadata !755, metadata !778, metadata !779, metadata !782}
!5 = metadata !{i32 786478, i32 0, null, metadata !"f<0>", metadata !"f<0>", metadata !"_ZN1CILi0EE1fILi0EEEiv", metadata !6, i32 11, metadata !7, i1 false, i1 true, i32 0, i32 0, null, i32 256, i1 false, i32 (%struct.C*)* @_ZN1CILi0EE1fILi0EEEiv, metadata !14, metadata !13, metadata !1, i32 11} ; [ DW_TAG_subprogram ] [line 11] [def] [f<0>]
!6 = metadata !{i32 786473, metadata !"/home/jazouani/llvm/llvm-3.2/tools/clang/test/CodeGenCXX/debug-info-determinism.cpp", metadata !"/home/jazouani/llvm/build/tools/clang/test/CodeGenCXX", null} ; [ DW_TAG_file_type ]
!7 = metadata !{i32 786453, i32 0, metadata !"", i32 0, i32 0, i64 0, i64 0, i64 0, i32 0, null, metadata !8, i32 0, i32 0} ; [ DW_TAG_subroutine_type ] [line 0, size 0, align 0, offset 0] [from ]
!8 = metadata !{metadata !9, metadata !10}
!9 = metadata !{i32 786468, null, metadata !"int", null, i32 0, i64 32, i64 32, i64 0, i32 0, i32 5} ; [ DW_TAG_base_type ] [int] [line 0, size 32, align 32, offset 0, enc DW_ATE_signed]
!10 = metadata !{i32 786447, i32 0, metadata !"", i32 0, i32 0, i64 64, i64 64, i64 0, i32 1088, metadata !11} ; [ DW_TAG_pointer_type ] [line 0, size 64, align 64, offset 0] [from C<0>]
!11 = metadata !{i32 786451, null, metadata !"C<0>", metadata !6, i32 5, i64 8, i64 8, i32 0, i32 0, null, metadata !12, i32 0, null, metadata !18} ; [ DW_TAG_structure_type ] [C<0>] [line 5, size 8, align 8, offset 0] [from ]
!12 = metadata !{metadata !13}
!13 = metadata !{i32 786478, i32 0, metadata !11, metadata !"f<0>", metadata !"f<0>", metadata !"_ZN1CILi0EE1fILi0EEEiv", metadata !6, i32 11, metadata !7, i1 false, i1 false, i32 0, i32 0, null, i32 256, i1 false, null, metadata !14, i32 0, metadata !16, i32 11} ; [ DW_TAG_subprogram ] [line 11] [f<0>]
!14 = metadata !{metadata !15}
!15 = metadata !{i32 786480, null, metadata !"M", metadata !9, i64 0, null, i32 0, i32 0} ; [ DW_TAG_template_value_parameter ]
!16 = metadata !{metadata !17}
!17 = metadata !{i32 786468}                      ; [ DW_TAG_base_type ] [line 0, size 0, align 0, offset 0]
!18 = metadata !{metadata !19}
!19 = metadata !{i32 786480, null, metadata !"N", metadata !9, i64 0, null, i32 0, i32 0} ; [ DW_TAG_template_value_parameter ]
!20 = metadata !{i32 786478, i32 0, null, metadata !"f<1>", metadata !"f<1>", metadata !"_ZN1CILi0EE1fILi1EEEiv", metadata !6, i32 12, metadata !7, i1 false, i1 true, i32 0, i32 0, null, i32 256, i1 false, i32 (%struct.C*)* @_ZN1CILi0EE1fILi1EEEiv, metadata !21, null, metadata !1, i32 12} ; [ DW_TAG_subprogram ] [line 12] [def] [f<1>]
!21 = metadata !{metadata !22}
!22 = metadata !{i32 786480, null, metadata !"M", metadata !9, i64 1, null, i32 0, i32 0} ; [ DW_TAG_template_value_parameter ]
!23 = metadata !{i32 786478, i32 0, null, metadata !"f<0>", metadata !"f<0>", metadata !"_ZN1CILi1EE1fILi0EEEiv", metadata !6, i32 13, metadata !24, i1 false, i1 true, i32 0, i32 0, null, i32 256, i1 false, i32 (%struct.C.0*)* @_ZN1CILi1EE1fILi0EEEiv, metadata !14, metadata !29, metadata !1, i32 13} ; [ DW_TAG_subprogram ] [line 13] [def] [f<0>]
!24 = metadata !{i32 786453, i32 0, metadata !"", i32 0, i32 0, i64 0, i64 0, i64 0, i32 0, null, metadata !25, i32 0, i32 0} ; [ DW_TAG_subroutine_type ] [line 0, size 0, align 0, offset 0] [from ]
!25 = metadata !{metadata !9, metadata !26}
!26 = metadata !{i32 786447, i32 0, metadata !"", i32 0, i32 0, i64 64, i64 64, i64 0, i32 1088, metadata !27} ; [ DW_TAG_pointer_type ] [line 0, size 64, align 64, offset 0] [from C<1>]
!27 = metadata !{i32 786451, null, metadata !"C<1>", metadata !6, i32 5, i64 8, i64 8, i32 0, i32 0, null, metadata !28, i32 0, null, metadata !32} ; [ DW_TAG_structure_type ] [C<1>] [line 5, size 8, align 8, offset 0] [from ]
!28 = metadata !{metadata !29}
!29 = metadata !{i32 786478, i32 0, metadata !27, metadata !"f<0>", metadata !"f<0>", metadata !"_ZN1CILi1EE1fILi0EEEiv", metadata !6, i32 13, metadata !24, i1 false, i1 false, i32 0, i32 0, null, i32 256, i1 false, null, metadata !14, i32 0, metadata !30, i32 13} ; [ DW_TAG_subprogram ] [line 13] [f<0>]
!30 = metadata !{metadata !31}
!31 = metadata !{i32 786468}                      ; [ DW_TAG_base_type ] [line 0, size 0, align 0, offset 0]
!32 = metadata !{metadata !33}
!33 = metadata !{i32 786480, null, metadata !"N", metadata !9, i64 1, null, i32 0, i32 0} ; [ DW_TAG_template_value_parameter ]
!34 = metadata !{i32 786478, i32 0, null, metadata !"f<1>", metadata !"f<1>", metadata !"_ZN1CILi1EE1fILi1EEEiv", metadata !6, i32 14, metadata !24, i1 false, i1 true, i32 0, i32 0, null, i32 256, i1 false, i32 (%struct.C.0*)* @_ZN1CILi1EE1fILi1EEEiv, metadata !21, null, metadata !1, i32 14} ; [ DW_TAG_subprogram ] [line 14] [def] [f<1>]
!35 = metadata !{i32 786478, i32 0, metadata !6, metadata !"__cxx_global_var_init", metadata !"__cxx_global_var_init", metadata !"", metadata !6, i32 16, metadata !36, i1 true, i1 true, i32 0, i32 0, null, i32 256, i1 false, void ()* @__cxx_global_var_init, null, null, metadata !1, i32 16} ; [ DW_TAG_subprogram ] [line 16] [local] [def] [__cxx_global_var_init]
!36 = metadata !{i32 786453, i32 0, metadata !"", i32 0, i32 0, i64 0, i64 0, i64 0, i32 0, null, metadata !37, i32 0, i32 0} ; [ DW_TAG_subroutine_type ] [line 0, size 0, align 0, offset 0] [from ]
!37 = metadata !{null}
!38 = metadata !{i32 786478, i32 0, null, metadata !"f<64>", metadata !"f<64>", metadata !"_ZN1CILi0EE1fILi64EEEiv", metadata !6, i32 6, metadata !7, i1 false, i1 true, i32 0, i32 0, null, i32 256, i1 false, i32 (%struct.C*)* @_ZN1CILi0EE1fILi64EEEiv, metadata !39, null, metadata !1, i32 6} ; [ DW_TAG_subprogram ] [line 6] [def] [f<64>]
!39 = metadata !{metadata !40}
!40 = metadata !{i32 786480, null, metadata !"M", metadata !9, i64 64, null, i32 0, i32 0} ; [ DW_TAG_template_value_parameter ]
!41 = metadata !{i32 786478, i32 0, null, metadata !"f<63>", metadata !"f<63>", metadata !"_ZN1CILi32EE1fILi63EEEiv", metadata !6, i32 6, metadata !42, i1 false, i1 true, i32 0, i32 0, null, i32 256, i1 false, i32 (%struct.C.1*)* @_ZN1CILi32EE1fILi63EEEiv, metadata !48, metadata !47, metadata !1, i32 6} ; [ DW_TAG_subprogram ] [line 6] [def] [f<63>]
!42 = metadata !{i32 786453, i32 0, metadata !"", i32 0, i32 0, i64 0, i64 0, i64 0, i32 0, null, metadata !43, i32 0, i32 0} ; [ DW_TAG_subroutine_type ] [line 0, size 0, align 0, offset 0] [from ]
!43 = metadata !{metadata !9, metadata !44}
!44 = metadata !{i32 786447, i32 0, metadata !"", i32 0, i32 0, i64 64, i64 64, i64 0, i32 1088, metadata !45} ; [ DW_TAG_pointer_type ] [line 0, size 64, align 64, offset 0] [from C<32>]
!45 = metadata !{i32 786451, null, metadata !"C<32>", metadata !6, i32 5, i64 8, i64 8, i32 0, i32 0, null, metadata !46, i32 0, null, metadata !57} ; [ DW_TAG_structure_type ] [C<32>] [line 5, size 8, align 8, offset 0] [from ]
!46 = metadata !{metadata !47, metadata !52}
!47 = metadata !{i32 786478, i32 0, metadata !45, metadata !"f<63>", metadata !"f<63>", metadata !"_ZN1CILi32EE1fILi63EEEiv", metadata !6, i32 6, metadata !42, i1 false, i1 false, i32 0, i32 0, null, i32 256, i1 false, null, metadata !48, i32 0, metadata !50, i32 6} ; [ DW_TAG_subprogram ] [line 6] [f<63>]
!48 = metadata !{metadata !49}
!49 = metadata !{i32 786480, null, metadata !"M", metadata !9, i64 63, null, i32 0, i32 0} ; [ DW_TAG_template_value_parameter ]
!50 = metadata !{metadata !51}
!51 = metadata !{i32 786468}                      ; [ DW_TAG_base_type ] [line 0, size 0, align 0, offset 0]
!52 = metadata !{i32 786478, i32 0, metadata !45, metadata !"~C", metadata !"~C", metadata !"", metadata !6, i32 5, metadata !53, i1 false, i1 false, i32 0, i32 0, null, i32 320, i1 false, null, null, i32 0, metadata !55, i32 5} ; [ DW_TAG_subprogram ] [line 5] [~C]
!53 = metadata !{i32 786453, i32 0, metadata !"", i32 0, i32 0, i64 0, i64 0, i64 0, i32 0, null, metadata !54, i32 0, i32 0} ; [ DW_TAG_subroutine_type ] [line 0, size 0, align 0, offset 0] [from ]
!54 = metadata !{null, metadata !44}
!55 = metadata !{metadata !56}
!56 = metadata !{i32 786468}                      ; [ DW_TAG_base_type ] [line 0, size 0, align 0, offset 0]
!57 = metadata !{metadata !58}
!58 = metadata !{i32 786480, null, metadata !"N", metadata !9, i64 32, null, i32 0, i32 0} ; [ DW_TAG_template_value_parameter ]
!59 = metadata !{i32 786478, i32 0, null, metadata !"f<62>", metadata !"f<62>", metadata !"_ZN1CILi31EE1fILi62EEEiv", metadata !6, i32 6, metadata !60, i1 false, i1 true, i32 0, i32 0, null, i32 256, i1 false, i32 (%struct.C.2*)* @_ZN1CILi31EE1fILi62EEEiv, metadata !66, metadata !65, metadata !1, i32 6} ; [ DW_TAG_subprogram ] [line 6] [def] [f<62>]
!60 = metadata !{i32 786453, i32 0, metadata !"", i32 0, i32 0, i64 0, i64 0, i64 0, i32 0, null, metadata !61, i32 0, i32 0} ; [ DW_TAG_subroutine_type ] [line 0, size 0, align 0, offset 0] [from ]
!61 = metadata !{metadata !9, metadata !62}
!62 = metadata !{i32 786447, i32 0, metadata !"", i32 0, i32 0, i64 64, i64 64, i64 0, i32 1088, metadata !63} ; [ DW_TAG_pointer_type ] [line 0, size 64, align 64, offset 0] [from C<31>]
!63 = metadata !{i32 786451, null, metadata !"C<31>", metadata !6, i32 5, i64 8, i64 8, i32 0, i32 0, null, metadata !64, i32 0, null, metadata !80} ; [ DW_TAG_structure_type ] [C<31>] [line 5, size 8, align 8, offset 0] [from ]
!64 = metadata !{metadata !65, metadata !70, metadata !75}
!65 = metadata !{i32 786478, i32 0, metadata !63, metadata !"f<62>", metadata !"f<62>", metadata !"_ZN1CILi31EE1fILi62EEEiv", metadata !6, i32 6, metadata !60, i1 false, i1 false, i32 0, i32 0, null, i32 256, i1 false, null, metadata !66, i32 0, metadata !68, i32 6} ; [ DW_TAG_subprogram ] [line 6] [f<62>]
!66 = metadata !{metadata !67}
!67 = metadata !{i32 786480, null, metadata !"M", metadata !9, i64 62, null, i32 0, i32 0} ; [ DW_TAG_template_value_parameter ]
!68 = metadata !{metadata !69}
!69 = metadata !{i32 786468}                      ; [ DW_TAG_base_type ] [line 0, size 0, align 0, offset 0]
!70 = metadata !{i32 786478, i32 0, metadata !63, metadata !"f<61>", metadata !"f<61>", metadata !"_ZN1CILi31EE1fILi61EEEiv", metadata !6, i32 6, metadata !60, i1 false, i1 false, i32 0, i32 0, null, i32 256, i1 false, null, metadata !71, i32 0, metadata !73, i32 6} ; [ DW_TAG_subprogram ] [line 6] [f<61>]
!71 = metadata !{metadata !72}
!72 = metadata !{i32 786480, null, metadata !"M", metadata !9, i64 61, null, i32 0, i32 0} ; [ DW_TAG_template_value_parameter ]
!73 = metadata !{metadata !74}
!74 = metadata !{i32 786468}                      ; [ DW_TAG_base_type ] [line 0, size 0, align 0, offset 0]
!75 = metadata !{i32 786478, i32 0, metadata !63, metadata !"~C", metadata !"~C", metadata !"", metadata !6, i32 5, metadata !76, i1 false, i1 false, i32 0, i32 0, null, i32 320, i1 false, null, null, i32 0, metadata !78, i32 5} ; [ DW_TAG_subprogram ] [line 5] [~C]
!76 = metadata !{i32 786453, i32 0, metadata !"", i32 0, i32 0, i64 0, i64 0, i64 0, i32 0, null, metadata !77, i32 0, i32 0} ; [ DW_TAG_subroutine_type ] [line 0, size 0, align 0, offset 0] [from ]
!77 = metadata !{null, metadata !62}
!78 = metadata !{metadata !79}
!79 = metadata !{i32 786468}                      ; [ DW_TAG_base_type ] [line 0, size 0, align 0, offset 0]
!80 = metadata !{metadata !81}
!81 = metadata !{i32 786480, null, metadata !"N", metadata !9, i64 31, null, i32 0, i32 0} ; [ DW_TAG_template_value_parameter ]
!82 = metadata !{i32 786478, i32 0, null, metadata !"f<61>", metadata !"f<61>", metadata !"_ZN1CILi31EE1fILi61EEEiv", metadata !6, i32 6, metadata !60, i1 false, i1 true, i32 0, i32 0, null, i32 256, i1 false, i32 (%struct.C.2*)* @_ZN1CILi31EE1fILi61EEEiv, metadata !71, metadata !70, metadata !1, i32 6} ; [ DW_TAG_subprogram ] [line 6] [def] [f<61>]
!83 = metadata !{i32 786478, i32 0, null, metadata !"f<60>", metadata !"f<60>", metadata !"_ZN1CILi30EE1fILi60EEEiv", metadata !6, i32 6, metadata !84, i1 false, i1 true, i32 0, i32 0, null, i32 256, i1 false, i32 (%struct.C.3*)* @_ZN1CILi30EE1fILi60EEEiv, metadata !90, metadata !89, metadata !1, i32 6} ; [ DW_TAG_subprogram ] [line 6] [def] [f<60>]
!84 = metadata !{i32 786453, i32 0, metadata !"", i32 0, i32 0, i64 0, i64 0, i64 0, i32 0, null, metadata !85, i32 0, i32 0} ; [ DW_TAG_subroutine_type ] [line 0, size 0, align 0, offset 0] [from ]
!85 = metadata !{metadata !9, metadata !86}
!86 = metadata !{i32 786447, i32 0, metadata !"", i32 0, i32 0, i64 64, i64 64, i64 0, i32 1088, metadata !87} ; [ DW_TAG_pointer_type ] [line 0, size 64, align 64, offset 0] [from C<30>]
!87 = metadata !{i32 786451, null, metadata !"C<30>", metadata !6, i32 5, i64 8, i64 8, i32 0, i32 0, null, metadata !88, i32 0, null, metadata !104} ; [ DW_TAG_structure_type ] [C<30>] [line 5, size 8, align 8, offset 0] [from ]
!88 = metadata !{metadata !89, metadata !94, metadata !99}
!89 = metadata !{i32 786478, i32 0, metadata !87, metadata !"f<60>", metadata !"f<60>", metadata !"_ZN1CILi30EE1fILi60EEEiv", metadata !6, i32 6, metadata !84, i1 false, i1 false, i32 0, i32 0, null, i32 256, i1 false, null, metadata !90, i32 0, metadata !92, i32 6} ; [ DW_TAG_subprogram ] [line 6] [f<60>]
!90 = metadata !{metadata !91}
!91 = metadata !{i32 786480, null, metadata !"M", metadata !9, i64 60, null, i32 0, i32 0} ; [ DW_TAG_template_value_parameter ]
!92 = metadata !{metadata !93}
!93 = metadata !{i32 786468}                      ; [ DW_TAG_base_type ] [line 0, size 0, align 0, offset 0]
!94 = metadata !{i32 786478, i32 0, metadata !87, metadata !"f<59>", metadata !"f<59>", metadata !"_ZN1CILi30EE1fILi59EEEiv", metadata !6, i32 6, metadata !84, i1 false, i1 false, i32 0, i32 0, null, i32 256, i1 false, null, metadata !95, i32 0, metadata !97, i32 6} ; [ DW_TAG_subprogram ] [line 6] [f<59>]
!95 = metadata !{metadata !96}
!96 = metadata !{i32 786480, null, metadata !"M", metadata !9, i64 59, null, i32 0, i32 0} ; [ DW_TAG_template_value_parameter ]
!97 = metadata !{metadata !98}
!98 = metadata !{i32 786468}                      ; [ DW_TAG_base_type ] [line 0, size 0, align 0, offset 0]
!99 = metadata !{i32 786478, i32 0, metadata !87, metadata !"~C", metadata !"~C", metadata !"", metadata !6, i32 5, metadata !100, i1 false, i1 false, i32 0, i32 0, null, i32 320, i1 false, null, null, i32 0, metadata !102, i32 5} ; [ DW_TAG_subprogram ] [line 5] [~C]
!100 = metadata !{i32 786453, i32 0, metadata !"", i32 0, i32 0, i64 0, i64 0, i64 0, i32 0, null, metadata !101, i32 0, i32 0} ; [ DW_TAG_subroutine_type ] [line 0, size 0, align 0, offset 0] [from ]
!101 = metadata !{null, metadata !86}
!102 = metadata !{metadata !103}
!103 = metadata !{i32 786468}                     ; [ DW_TAG_base_type ] [line 0, size 0, align 0, offset 0]
!104 = metadata !{metadata !105}
!105 = metadata !{i32 786480, null, metadata !"N", metadata !9, i64 30, null, i32 0, i32 0} ; [ DW_TAG_template_value_parameter ]
!106 = metadata !{i32 786478, i32 0, null, metadata !"f<59>", metadata !"f<59>", metadata !"_ZN1CILi30EE1fILi59EEEiv", metadata !6, i32 6, metadata !84, i1 false, i1 true, i32 0, i32 0, null, i32 256, i1 false, i32 (%struct.C.3*)* @_ZN1CILi30EE1fILi59EEEiv, metadata !95, metadata !94, metadata !1, i32 6} ; [ DW_TAG_subprogram ] [line 6] [def] [f<59>]
!107 = metadata !{i32 786478, i32 0, null, metadata !"f<58>", metadata !"f<58>", metadata !"_ZN1CILi29EE1fILi58EEEiv", metadata !6, i32 6, metadata !108, i1 false, i1 true, i32 0, i32 0, null, i32 256, i1 false, i32 (%struct.C.4*)* @_ZN1CILi29EE1fILi58EEEiv, metadata !114, metadata !113, metadata !1, i32 6} ; [ DW_TAG_subprogram ] [line 6] [def] [f<58>]
!108 = metadata !{i32 786453, i32 0, metadata !"", i32 0, i32 0, i64 0, i64 0, i64 0, i32 0, null, metadata !109, i32 0, i32 0} ; [ DW_TAG_subroutine_type ] [line 0, size 0, align 0, offset 0] [from ]
!109 = metadata !{metadata !9, metadata !110}
!110 = metadata !{i32 786447, i32 0, metadata !"", i32 0, i32 0, i64 64, i64 64, i64 0, i32 1088, metadata !111} ; [ DW_TAG_pointer_type ] [line 0, size 64, align 64, offset 0] [from C<29>]
!111 = metadata !{i32 786451, null, metadata !"C<29>", metadata !6, i32 5, i64 8, i64 8, i32 0, i32 0, null, metadata !112, i32 0, null, metadata !128} ; [ DW_TAG_structure_type ] [C<29>] [line 5, size 8, align 8, offset 0] [from ]
!112 = metadata !{metadata !113, metadata !118, metadata !123}
!113 = metadata !{i32 786478, i32 0, metadata !111, metadata !"f<58>", metadata !"f<58>", metadata !"_ZN1CILi29EE1fILi58EEEiv", metadata !6, i32 6, metadata !108, i1 false, i1 false, i32 0, i32 0, null, i32 256, i1 false, null, metadata !114, i32 0, metadata !116, i32 6} ; [ DW_TAG_subprogram ] [line 6] [f<58>]
!114 = metadata !{metadata !115}
!115 = metadata !{i32 786480, null, metadata !"M", metadata !9, i64 58, null, i32 0, i32 0} ; [ DW_TAG_template_value_parameter ]
!116 = metadata !{metadata !117}
!117 = metadata !{i32 786468}                     ; [ DW_TAG_base_type ] [line 0, size 0, align 0, offset 0]
!118 = metadata !{i32 786478, i32 0, metadata !111, metadata !"f<57>", metadata !"f<57>", metadata !"_ZN1CILi29EE1fILi57EEEiv", metadata !6, i32 6, metadata !108, i1 false, i1 false, i32 0, i32 0, null, i32 256, i1 false, null, metadata !119, i32 0, metadata !121, i32 6} ; [ DW_TAG_subprogram ] [line 6] [f<57>]
!119 = metadata !{metadata !120}
!120 = metadata !{i32 786480, null, metadata !"M", metadata !9, i64 57, null, i32 0, i32 0} ; [ DW_TAG_template_value_parameter ]
!121 = metadata !{metadata !122}
!122 = metadata !{i32 786468}                     ; [ DW_TAG_base_type ] [line 0, size 0, align 0, offset 0]
!123 = metadata !{i32 786478, i32 0, metadata !111, metadata !"~C", metadata !"~C", metadata !"", metadata !6, i32 5, metadata !124, i1 false, i1 false, i32 0, i32 0, null, i32 320, i1 false, null, null, i32 0, metadata !126, i32 5} ; [ DW_TAG_subprogram ] [line 5] [~C]
!124 = metadata !{i32 786453, i32 0, metadata !"", i32 0, i32 0, i64 0, i64 0, i64 0, i32 0, null, metadata !125, i32 0, i32 0} ; [ DW_TAG_subroutine_type ] [line 0, size 0, align 0, offset 0] [from ]
!125 = metadata !{null, metadata !110}
!126 = metadata !{metadata !127}
!127 = metadata !{i32 786468}                     ; [ DW_TAG_base_type ] [line 0, size 0, align 0, offset 0]
!128 = metadata !{metadata !129}
!129 = metadata !{i32 786480, null, metadata !"N", metadata !9, i64 29, null, i32 0, i32 0} ; [ DW_TAG_template_value_parameter ]
!130 = metadata !{i32 786478, i32 0, null, metadata !"f<57>", metadata !"f<57>", metadata !"_ZN1CILi29EE1fILi57EEEiv", metadata !6, i32 6, metadata !108, i1 false, i1 true, i32 0, i32 0, null, i32 256, i1 false, i32 (%struct.C.4*)* @_ZN1CILi29EE1fILi57EEEiv, metadata !119, metadata !118, metadata !1, i32 6} ; [ DW_TAG_subprogram ] [line 6] [def] [f<57>]
!131 = metadata !{i32 786478, i32 0, null, metadata !"f<56>", metadata !"f<56>", metadata !"_ZN1CILi28EE1fILi56EEEiv", metadata !6, i32 6, metadata !132, i1 false, i1 true, i32 0, i32 0, null, i32 256, i1 false, i32 (%struct.C.5*)* @_ZN1CILi28EE1fILi56EEEiv, metadata !138, metadata !137, metadata !1, i32 6} ; [ DW_TAG_subprogram ] [line 6] [def] [f<56>]
!132 = metadata !{i32 786453, i32 0, metadata !"", i32 0, i32 0, i64 0, i64 0, i64 0, i32 0, null, metadata !133, i32 0, i32 0} ; [ DW_TAG_subroutine_type ] [line 0, size 0, align 0, offset 0] [from ]
!133 = metadata !{metadata !9, metadata !134}
!134 = metadata !{i32 786447, i32 0, metadata !"", i32 0, i32 0, i64 64, i64 64, i64 0, i32 1088, metadata !135} ; [ DW_TAG_pointer_type ] [line 0, size 64, align 64, offset 0] [from C<28>]
!135 = metadata !{i32 786451, null, metadata !"C<28>", metadata !6, i32 5, i64 8, i64 8, i32 0, i32 0, null, metadata !136, i32 0, null, metadata !152} ; [ DW_TAG_structure_type ] [C<28>] [line 5, size 8, align 8, offset 0] [from ]
!136 = metadata !{metadata !137, metadata !142, metadata !147}
!137 = metadata !{i32 786478, i32 0, metadata !135, metadata !"f<56>", metadata !"f<56>", metadata !"_ZN1CILi28EE1fILi56EEEiv", metadata !6, i32 6, metadata !132, i1 false, i1 false, i32 0, i32 0, null, i32 256, i1 false, null, metadata !138, i32 0, metadata !140, i32 6} ; [ DW_TAG_subprogram ] [line 6] [f<56>]
!138 = metadata !{metadata !139}
!139 = metadata !{i32 786480, null, metadata !"M", metadata !9, i64 56, null, i32 0, i32 0} ; [ DW_TAG_template_value_parameter ]
!140 = metadata !{metadata !141}
!141 = metadata !{i32 786468}                     ; [ DW_TAG_base_type ] [line 0, size 0, align 0, offset 0]
!142 = metadata !{i32 786478, i32 0, metadata !135, metadata !"f<55>", metadata !"f<55>", metadata !"_ZN1CILi28EE1fILi55EEEiv", metadata !6, i32 6, metadata !132, i1 false, i1 false, i32 0, i32 0, null, i32 256, i1 false, null, metadata !143, i32 0, metadata !145, i32 6} ; [ DW_TAG_subprogram ] [line 6] [f<55>]
!143 = metadata !{metadata !144}
!144 = metadata !{i32 786480, null, metadata !"M", metadata !9, i64 55, null, i32 0, i32 0} ; [ DW_TAG_template_value_parameter ]
!145 = metadata !{metadata !146}
!146 = metadata !{i32 786468}                     ; [ DW_TAG_base_type ] [line 0, size 0, align 0, offset 0]
!147 = metadata !{i32 786478, i32 0, metadata !135, metadata !"~C", metadata !"~C", metadata !"", metadata !6, i32 5, metadata !148, i1 false, i1 false, i32 0, i32 0, null, i32 320, i1 false, null, null, i32 0, metadata !150, i32 5} ; [ DW_TAG_subprogram ] [line 5] [~C]
!148 = metadata !{i32 786453, i32 0, metadata !"", i32 0, i32 0, i64 0, i64 0, i64 0, i32 0, null, metadata !149, i32 0, i32 0} ; [ DW_TAG_subroutine_type ] [line 0, size 0, align 0, offset 0] [from ]
!149 = metadata !{null, metadata !134}
!150 = metadata !{metadata !151}
!151 = metadata !{i32 786468}                     ; [ DW_TAG_base_type ] [line 0, size 0, align 0, offset 0]
!152 = metadata !{metadata !153}
!153 = metadata !{i32 786480, null, metadata !"N", metadata !9, i64 28, null, i32 0, i32 0} ; [ DW_TAG_template_value_parameter ]
!154 = metadata !{i32 786478, i32 0, null, metadata !"f<55>", metadata !"f<55>", metadata !"_ZN1CILi28EE1fILi55EEEiv", metadata !6, i32 6, metadata !132, i1 false, i1 true, i32 0, i32 0, null, i32 256, i1 false, i32 (%struct.C.5*)* @_ZN1CILi28EE1fILi55EEEiv, metadata !143, metadata !142, metadata !1, i32 6} ; [ DW_TAG_subprogram ] [line 6] [def] [f<55>]
!155 = metadata !{i32 786478, i32 0, null, metadata !"f<54>", metadata !"f<54>", metadata !"_ZN1CILi27EE1fILi54EEEiv", metadata !6, i32 6, metadata !156, i1 false, i1 true, i32 0, i32 0, null, i32 256, i1 false, i32 (%struct.C.6*)* @_ZN1CILi27EE1fILi54EEEiv, metadata !162, metadata !161, metadata !1, i32 6} ; [ DW_TAG_subprogram ] [line 6] [def] [f<54>]
!156 = metadata !{i32 786453, i32 0, metadata !"", i32 0, i32 0, i64 0, i64 0, i64 0, i32 0, null, metadata !157, i32 0, i32 0} ; [ DW_TAG_subroutine_type ] [line 0, size 0, align 0, offset 0] [from ]
!157 = metadata !{metadata !9, metadata !158}
!158 = metadata !{i32 786447, i32 0, metadata !"", i32 0, i32 0, i64 64, i64 64, i64 0, i32 1088, metadata !159} ; [ DW_TAG_pointer_type ] [line 0, size 64, align 64, offset 0] [from C<27>]
!159 = metadata !{i32 786451, null, metadata !"C<27>", metadata !6, i32 5, i64 8, i64 8, i32 0, i32 0, null, metadata !160, i32 0, null, metadata !176} ; [ DW_TAG_structure_type ] [C<27>] [line 5, size 8, align 8, offset 0] [from ]
!160 = metadata !{metadata !161, metadata !166, metadata !171}
!161 = metadata !{i32 786478, i32 0, metadata !159, metadata !"f<54>", metadata !"f<54>", metadata !"_ZN1CILi27EE1fILi54EEEiv", metadata !6, i32 6, metadata !156, i1 false, i1 false, i32 0, i32 0, null, i32 256, i1 false, null, metadata !162, i32 0, metadata !164, i32 6} ; [ DW_TAG_subprogram ] [line 6] [f<54>]
!162 = metadata !{metadata !163}
!163 = metadata !{i32 786480, null, metadata !"M", metadata !9, i64 54, null, i32 0, i32 0} ; [ DW_TAG_template_value_parameter ]
!164 = metadata !{metadata !165}
!165 = metadata !{i32 786468}                     ; [ DW_TAG_base_type ] [line 0, size 0, align 0, offset 0]
!166 = metadata !{i32 786478, i32 0, metadata !159, metadata !"f<53>", metadata !"f<53>", metadata !"_ZN1CILi27EE1fILi53EEEiv", metadata !6, i32 6, metadata !156, i1 false, i1 false, i32 0, i32 0, null, i32 256, i1 false, null, metadata !167, i32 0, metadata !169, i32 6} ; [ DW_TAG_subprogram ] [line 6] [f<53>]
!167 = metadata !{metadata !168}
!168 = metadata !{i32 786480, null, metadata !"M", metadata !9, i64 53, null, i32 0, i32 0} ; [ DW_TAG_template_value_parameter ]
!169 = metadata !{metadata !170}
!170 = metadata !{i32 786468}                     ; [ DW_TAG_base_type ] [line 0, size 0, align 0, offset 0]
!171 = metadata !{i32 786478, i32 0, metadata !159, metadata !"~C", metadata !"~C", metadata !"", metadata !6, i32 5, metadata !172, i1 false, i1 false, i32 0, i32 0, null, i32 320, i1 false, null, null, i32 0, metadata !174, i32 5} ; [ DW_TAG_subprogram ] [line 5] [~C]
!172 = metadata !{i32 786453, i32 0, metadata !"", i32 0, i32 0, i64 0, i64 0, i64 0, i32 0, null, metadata !173, i32 0, i32 0} ; [ DW_TAG_subroutine_type ] [line 0, size 0, align 0, offset 0] [from ]
!173 = metadata !{null, metadata !158}
!174 = metadata !{metadata !175}
!175 = metadata !{i32 786468}                     ; [ DW_TAG_base_type ] [line 0, size 0, align 0, offset 0]
!176 = metadata !{metadata !177}
!177 = metadata !{i32 786480, null, metadata !"N", metadata !9, i64 27, null, i32 0, i32 0} ; [ DW_TAG_template_value_parameter ]
!178 = metadata !{i32 786478, i32 0, null, metadata !"f<53>", metadata !"f<53>", metadata !"_ZN1CILi27EE1fILi53EEEiv", metadata !6, i32 6, metadata !156, i1 false, i1 true, i32 0, i32 0, null, i32 256, i1 false, i32 (%struct.C.6*)* @_ZN1CILi27EE1fILi53EEEiv, metadata !167, metadata !166, metadata !1, i32 6} ; [ DW_TAG_subprogram ] [line 6] [def] [f<53>]
!179 = metadata !{i32 786478, i32 0, null, metadata !"f<52>", metadata !"f<52>", metadata !"_ZN1CILi26EE1fILi52EEEiv", metadata !6, i32 6, metadata !180, i1 false, i1 true, i32 0, i32 0, null, i32 256, i1 false, i32 (%struct.C.7*)* @_ZN1CILi26EE1fILi52EEEiv, metadata !186, metadata !185, metadata !1, i32 6} ; [ DW_TAG_subprogram ] [line 6] [def] [f<52>]
!180 = metadata !{i32 786453, i32 0, metadata !"", i32 0, i32 0, i64 0, i64 0, i64 0, i32 0, null, metadata !181, i32 0, i32 0} ; [ DW_TAG_subroutine_type ] [line 0, size 0, align 0, offset 0] [from ]
!181 = metadata !{metadata !9, metadata !182}
!182 = metadata !{i32 786447, i32 0, metadata !"", i32 0, i32 0, i64 64, i64 64, i64 0, i32 1088, metadata !183} ; [ DW_TAG_pointer_type ] [line 0, size 64, align 64, offset 0] [from C<26>]
!183 = metadata !{i32 786451, null, metadata !"C<26>", metadata !6, i32 5, i64 8, i64 8, i32 0, i32 0, null, metadata !184, i32 0, null, metadata !200} ; [ DW_TAG_structure_type ] [C<26>] [line 5, size 8, align 8, offset 0] [from ]
!184 = metadata !{metadata !185, metadata !190, metadata !195}
!185 = metadata !{i32 786478, i32 0, metadata !183, metadata !"f<52>", metadata !"f<52>", metadata !"_ZN1CILi26EE1fILi52EEEiv", metadata !6, i32 6, metadata !180, i1 false, i1 false, i32 0, i32 0, null, i32 256, i1 false, null, metadata !186, i32 0, metadata !188, i32 6} ; [ DW_TAG_subprogram ] [line 6] [f<52>]
!186 = metadata !{metadata !187}
!187 = metadata !{i32 786480, null, metadata !"M", metadata !9, i64 52, null, i32 0, i32 0} ; [ DW_TAG_template_value_parameter ]
!188 = metadata !{metadata !189}
!189 = metadata !{i32 786468}                     ; [ DW_TAG_base_type ] [line 0, size 0, align 0, offset 0]
!190 = metadata !{i32 786478, i32 0, metadata !183, metadata !"f<51>", metadata !"f<51>", metadata !"_ZN1CILi26EE1fILi51EEEiv", metadata !6, i32 6, metadata !180, i1 false, i1 false, i32 0, i32 0, null, i32 256, i1 false, null, metadata !191, i32 0, metadata !193, i32 6} ; [ DW_TAG_subprogram ] [line 6] [f<51>]
!191 = metadata !{metadata !192}
!192 = metadata !{i32 786480, null, metadata !"M", metadata !9, i64 51, null, i32 0, i32 0} ; [ DW_TAG_template_value_parameter ]
!193 = metadata !{metadata !194}
!194 = metadata !{i32 786468}                     ; [ DW_TAG_base_type ] [line 0, size 0, align 0, offset 0]
!195 = metadata !{i32 786478, i32 0, metadata !183, metadata !"~C", metadata !"~C", metadata !"", metadata !6, i32 5, metadata !196, i1 false, i1 false, i32 0, i32 0, null, i32 320, i1 false, null, null, i32 0, metadata !198, i32 5} ; [ DW_TAG_subprogram ] [line 5] [~C]
!196 = metadata !{i32 786453, i32 0, metadata !"", i32 0, i32 0, i64 0, i64 0, i64 0, i32 0, null, metadata !197, i32 0, i32 0} ; [ DW_TAG_subroutine_type ] [line 0, size 0, align 0, offset 0] [from ]
!197 = metadata !{null, metadata !182}
!198 = metadata !{metadata !199}
!199 = metadata !{i32 786468}                     ; [ DW_TAG_base_type ] [line 0, size 0, align 0, offset 0]
!200 = metadata !{metadata !201}
!201 = metadata !{i32 786480, null, metadata !"N", metadata !9, i64 26, null, i32 0, i32 0} ; [ DW_TAG_template_value_parameter ]
!202 = metadata !{i32 786478, i32 0, null, metadata !"f<51>", metadata !"f<51>", metadata !"_ZN1CILi26EE1fILi51EEEiv", metadata !6, i32 6, metadata !180, i1 false, i1 true, i32 0, i32 0, null, i32 256, i1 false, i32 (%struct.C.7*)* @_ZN1CILi26EE1fILi51EEEiv, metadata !191, metadata !190, metadata !1, i32 6} ; [ DW_TAG_subprogram ] [line 6] [def] [f<51>]
!203 = metadata !{i32 786478, i32 0, null, metadata !"f<50>", metadata !"f<50>", metadata !"_ZN1CILi25EE1fILi50EEEiv", metadata !6, i32 6, metadata !204, i1 false, i1 true, i32 0, i32 0, null, i32 256, i1 false, i32 (%struct.C.8*)* @_ZN1CILi25EE1fILi50EEEiv, metadata !210, metadata !209, metadata !1, i32 6} ; [ DW_TAG_subprogram ] [line 6] [def] [f<50>]
!204 = metadata !{i32 786453, i32 0, metadata !"", i32 0, i32 0, i64 0, i64 0, i64 0, i32 0, null, metadata !205, i32 0, i32 0} ; [ DW_TAG_subroutine_type ] [line 0, size 0, align 0, offset 0] [from ]
!205 = metadata !{metadata !9, metadata !206}
!206 = metadata !{i32 786447, i32 0, metadata !"", i32 0, i32 0, i64 64, i64 64, i64 0, i32 1088, metadata !207} ; [ DW_TAG_pointer_type ] [line 0, size 64, align 64, offset 0] [from C<25>]
!207 = metadata !{i32 786451, null, metadata !"C<25>", metadata !6, i32 5, i64 8, i64 8, i32 0, i32 0, null, metadata !208, i32 0, null, metadata !224} ; [ DW_TAG_structure_type ] [C<25>] [line 5, size 8, align 8, offset 0] [from ]
!208 = metadata !{metadata !209, metadata !214, metadata !219}
!209 = metadata !{i32 786478, i32 0, metadata !207, metadata !"f<50>", metadata !"f<50>", metadata !"_ZN1CILi25EE1fILi50EEEiv", metadata !6, i32 6, metadata !204, i1 false, i1 false, i32 0, i32 0, null, i32 256, i1 false, null, metadata !210, i32 0, metadata !212, i32 6} ; [ DW_TAG_subprogram ] [line 6] [f<50>]
!210 = metadata !{metadata !211}
!211 = metadata !{i32 786480, null, metadata !"M", metadata !9, i64 50, null, i32 0, i32 0} ; [ DW_TAG_template_value_parameter ]
!212 = metadata !{metadata !213}
!213 = metadata !{i32 786468}                     ; [ DW_TAG_base_type ] [line 0, size 0, align 0, offset 0]
!214 = metadata !{i32 786478, i32 0, metadata !207, metadata !"f<49>", metadata !"f<49>", metadata !"_ZN1CILi25EE1fILi49EEEiv", metadata !6, i32 6, metadata !204, i1 false, i1 false, i32 0, i32 0, null, i32 256, i1 false, null, metadata !215, i32 0, metadata !217, i32 6} ; [ DW_TAG_subprogram ] [line 6] [f<49>]
!215 = metadata !{metadata !216}
!216 = metadata !{i32 786480, null, metadata !"M", metadata !9, i64 49, null, i32 0, i32 0} ; [ DW_TAG_template_value_parameter ]
!217 = metadata !{metadata !218}
!218 = metadata !{i32 786468}                     ; [ DW_TAG_base_type ] [line 0, size 0, align 0, offset 0]
!219 = metadata !{i32 786478, i32 0, metadata !207, metadata !"~C", metadata !"~C", metadata !"", metadata !6, i32 5, metadata !220, i1 false, i1 false, i32 0, i32 0, null, i32 320, i1 false, null, null, i32 0, metadata !222, i32 5} ; [ DW_TAG_subprogram ] [line 5] [~C]
!220 = metadata !{i32 786453, i32 0, metadata !"", i32 0, i32 0, i64 0, i64 0, i64 0, i32 0, null, metadata !221, i32 0, i32 0} ; [ DW_TAG_subroutine_type ] [line 0, size 0, align 0, offset 0] [from ]
!221 = metadata !{null, metadata !206}
!222 = metadata !{metadata !223}
!223 = metadata !{i32 786468}                     ; [ DW_TAG_base_type ] [line 0, size 0, align 0, offset 0]
!224 = metadata !{metadata !225}
!225 = metadata !{i32 786480, null, metadata !"N", metadata !9, i64 25, null, i32 0, i32 0} ; [ DW_TAG_template_value_parameter ]
!226 = metadata !{i32 786478, i32 0, null, metadata !"f<49>", metadata !"f<49>", metadata !"_ZN1CILi25EE1fILi49EEEiv", metadata !6, i32 6, metadata !204, i1 false, i1 true, i32 0, i32 0, null, i32 256, i1 false, i32 (%struct.C.8*)* @_ZN1CILi25EE1fILi49EEEiv, metadata !215, metadata !214, metadata !1, i32 6} ; [ DW_TAG_subprogram ] [line 6] [def] [f<49>]
!227 = metadata !{i32 786478, i32 0, null, metadata !"f<48>", metadata !"f<48>", metadata !"_ZN1CILi24EE1fILi48EEEiv", metadata !6, i32 6, metadata !228, i1 false, i1 true, i32 0, i32 0, null, i32 256, i1 false, i32 (%struct.C.9*)* @_ZN1CILi24EE1fILi48EEEiv, metadata !234, metadata !233, metadata !1, i32 6} ; [ DW_TAG_subprogram ] [line 6] [def] [f<48>]
!228 = metadata !{i32 786453, i32 0, metadata !"", i32 0, i32 0, i64 0, i64 0, i64 0, i32 0, null, metadata !229, i32 0, i32 0} ; [ DW_TAG_subroutine_type ] [line 0, size 0, align 0, offset 0] [from ]
!229 = metadata !{metadata !9, metadata !230}
!230 = metadata !{i32 786447, i32 0, metadata !"", i32 0, i32 0, i64 64, i64 64, i64 0, i32 1088, metadata !231} ; [ DW_TAG_pointer_type ] [line 0, size 64, align 64, offset 0] [from C<24>]
!231 = metadata !{i32 786451, null, metadata !"C<24>", metadata !6, i32 5, i64 8, i64 8, i32 0, i32 0, null, metadata !232, i32 0, null, metadata !248} ; [ DW_TAG_structure_type ] [C<24>] [line 5, size 8, align 8, offset 0] [from ]
!232 = metadata !{metadata !233, metadata !238, metadata !243}
!233 = metadata !{i32 786478, i32 0, metadata !231, metadata !"f<48>", metadata !"f<48>", metadata !"_ZN1CILi24EE1fILi48EEEiv", metadata !6, i32 6, metadata !228, i1 false, i1 false, i32 0, i32 0, null, i32 256, i1 false, null, metadata !234, i32 0, metadata !236, i32 6} ; [ DW_TAG_subprogram ] [line 6] [f<48>]
!234 = metadata !{metadata !235}
!235 = metadata !{i32 786480, null, metadata !"M", metadata !9, i64 48, null, i32 0, i32 0} ; [ DW_TAG_template_value_parameter ]
!236 = metadata !{metadata !237}
!237 = metadata !{i32 786468}                     ; [ DW_TAG_base_type ] [line 0, size 0, align 0, offset 0]
!238 = metadata !{i32 786478, i32 0, metadata !231, metadata !"f<47>", metadata !"f<47>", metadata !"_ZN1CILi24EE1fILi47EEEiv", metadata !6, i32 6, metadata !228, i1 false, i1 false, i32 0, i32 0, null, i32 256, i1 false, null, metadata !239, i32 0, metadata !241, i32 6} ; [ DW_TAG_subprogram ] [line 6] [f<47>]
!239 = metadata !{metadata !240}
!240 = metadata !{i32 786480, null, metadata !"M", metadata !9, i64 47, null, i32 0, i32 0} ; [ DW_TAG_template_value_parameter ]
!241 = metadata !{metadata !242}
!242 = metadata !{i32 786468}                     ; [ DW_TAG_base_type ] [line 0, size 0, align 0, offset 0]
!243 = metadata !{i32 786478, i32 0, metadata !231, metadata !"~C", metadata !"~C", metadata !"", metadata !6, i32 5, metadata !244, i1 false, i1 false, i32 0, i32 0, null, i32 320, i1 false, null, null, i32 0, metadata !246, i32 5} ; [ DW_TAG_subprogram ] [line 5] [~C]
!244 = metadata !{i32 786453, i32 0, metadata !"", i32 0, i32 0, i64 0, i64 0, i64 0, i32 0, null, metadata !245, i32 0, i32 0} ; [ DW_TAG_subroutine_type ] [line 0, size 0, align 0, offset 0] [from ]
!245 = metadata !{null, metadata !230}
!246 = metadata !{metadata !247}
!247 = metadata !{i32 786468}                     ; [ DW_TAG_base_type ] [line 0, size 0, align 0, offset 0]
!248 = metadata !{metadata !249}
!249 = metadata !{i32 786480, null, metadata !"N", metadata !9, i64 24, null, i32 0, i32 0} ; [ DW_TAG_template_value_parameter ]
!250 = metadata !{i32 786478, i32 0, null, metadata !"f<47>", metadata !"f<47>", metadata !"_ZN1CILi24EE1fILi47EEEiv", metadata !6, i32 6, metadata !228, i1 false, i1 true, i32 0, i32 0, null, i32 256, i1 false, i32 (%struct.C.9*)* @_ZN1CILi24EE1fILi47EEEiv, metadata !239, metadata !238, metadata !1, i32 6} ; [ DW_TAG_subprogram ] [line 6] [def] [f<47>]
!251 = metadata !{i32 786478, i32 0, null, metadata !"f<46>", metadata !"f<46>", metadata !"_ZN1CILi23EE1fILi46EEEiv", metadata !6, i32 6, metadata !252, i1 false, i1 true, i32 0, i32 0, null, i32 256, i1 false, i32 (%struct.C.10*)* @_ZN1CILi23EE1fILi46EEEiv, metadata !258, metadata !257, metadata !1, i32 6} ; [ DW_TAG_subprogram ] [line 6] [def] [f<46>]
!252 = metadata !{i32 786453, i32 0, metadata !"", i32 0, i32 0, i64 0, i64 0, i64 0, i32 0, null, metadata !253, i32 0, i32 0} ; [ DW_TAG_subroutine_type ] [line 0, size 0, align 0, offset 0] [from ]
!253 = metadata !{metadata !9, metadata !254}
!254 = metadata !{i32 786447, i32 0, metadata !"", i32 0, i32 0, i64 64, i64 64, i64 0, i32 1088, metadata !255} ; [ DW_TAG_pointer_type ] [line 0, size 64, align 64, offset 0] [from C<23>]
!255 = metadata !{i32 786451, null, metadata !"C<23>", metadata !6, i32 5, i64 8, i64 8, i32 0, i32 0, null, metadata !256, i32 0, null, metadata !272} ; [ DW_TAG_structure_type ] [C<23>] [line 5, size 8, align 8, offset 0] [from ]
!256 = metadata !{metadata !257, metadata !262, metadata !267}
!257 = metadata !{i32 786478, i32 0, metadata !255, metadata !"f<46>", metadata !"f<46>", metadata !"_ZN1CILi23EE1fILi46EEEiv", metadata !6, i32 6, metadata !252, i1 false, i1 false, i32 0, i32 0, null, i32 256, i1 false, null, metadata !258, i32 0, metadata !260, i32 6} ; [ DW_TAG_subprogram ] [line 6] [f<46>]
!258 = metadata !{metadata !259}
!259 = metadata !{i32 786480, null, metadata !"M", metadata !9, i64 46, null, i32 0, i32 0} ; [ DW_TAG_template_value_parameter ]
!260 = metadata !{metadata !261}
!261 = metadata !{i32 786468}                     ; [ DW_TAG_base_type ] [line 0, size 0, align 0, offset 0]
!262 = metadata !{i32 786478, i32 0, metadata !255, metadata !"f<45>", metadata !"f<45>", metadata !"_ZN1CILi23EE1fILi45EEEiv", metadata !6, i32 6, metadata !252, i1 false, i1 false, i32 0, i32 0, null, i32 256, i1 false, null, metadata !263, i32 0, metadata !265, i32 6} ; [ DW_TAG_subprogram ] [line 6] [f<45>]
!263 = metadata !{metadata !264}
!264 = metadata !{i32 786480, null, metadata !"M", metadata !9, i64 45, null, i32 0, i32 0} ; [ DW_TAG_template_value_parameter ]
!265 = metadata !{metadata !266}
!266 = metadata !{i32 786468}                     ; [ DW_TAG_base_type ] [line 0, size 0, align 0, offset 0]
!267 = metadata !{i32 786478, i32 0, metadata !255, metadata !"~C", metadata !"~C", metadata !"", metadata !6, i32 5, metadata !268, i1 false, i1 false, i32 0, i32 0, null, i32 320, i1 false, null, null, i32 0, metadata !270, i32 5} ; [ DW_TAG_subprogram ] [line 5] [~C]
!268 = metadata !{i32 786453, i32 0, metadata !"", i32 0, i32 0, i64 0, i64 0, i64 0, i32 0, null, metadata !269, i32 0, i32 0} ; [ DW_TAG_subroutine_type ] [line 0, size 0, align 0, offset 0] [from ]
!269 = metadata !{null, metadata !254}
!270 = metadata !{metadata !271}
!271 = metadata !{i32 786468}                     ; [ DW_TAG_base_type ] [line 0, size 0, align 0, offset 0]
!272 = metadata !{metadata !273}
!273 = metadata !{i32 786480, null, metadata !"N", metadata !9, i64 23, null, i32 0, i32 0} ; [ DW_TAG_template_value_parameter ]
!274 = metadata !{i32 786478, i32 0, null, metadata !"f<45>", metadata !"f<45>", metadata !"_ZN1CILi23EE1fILi45EEEiv", metadata !6, i32 6, metadata !252, i1 false, i1 true, i32 0, i32 0, null, i32 256, i1 false, i32 (%struct.C.10*)* @_ZN1CILi23EE1fILi45EEEiv, metadata !263, metadata !262, metadata !1, i32 6} ; [ DW_TAG_subprogram ] [line 6] [def] [f<45>]
!275 = metadata !{i32 786478, i32 0, null, metadata !"f<44>", metadata !"f<44>", metadata !"_ZN1CILi22EE1fILi44EEEiv", metadata !6, i32 6, metadata !276, i1 false, i1 true, i32 0, i32 0, null, i32 256, i1 false, i32 (%struct.C.11*)* @_ZN1CILi22EE1fILi44EEEiv, metadata !282, metadata !281, metadata !1, i32 6} ; [ DW_TAG_subprogram ] [line 6] [def] [f<44>]
!276 = metadata !{i32 786453, i32 0, metadata !"", i32 0, i32 0, i64 0, i64 0, i64 0, i32 0, null, metadata !277, i32 0, i32 0} ; [ DW_TAG_subroutine_type ] [line 0, size 0, align 0, offset 0] [from ]
!277 = metadata !{metadata !9, metadata !278}
!278 = metadata !{i32 786447, i32 0, metadata !"", i32 0, i32 0, i64 64, i64 64, i64 0, i32 1088, metadata !279} ; [ DW_TAG_pointer_type ] [line 0, size 64, align 64, offset 0] [from C<22>]
!279 = metadata !{i32 786451, null, metadata !"C<22>", metadata !6, i32 5, i64 8, i64 8, i32 0, i32 0, null, metadata !280, i32 0, null, metadata !296} ; [ DW_TAG_structure_type ] [C<22>] [line 5, size 8, align 8, offset 0] [from ]
!280 = metadata !{metadata !281, metadata !286, metadata !291}
!281 = metadata !{i32 786478, i32 0, metadata !279, metadata !"f<44>", metadata !"f<44>", metadata !"_ZN1CILi22EE1fILi44EEEiv", metadata !6, i32 6, metadata !276, i1 false, i1 false, i32 0, i32 0, null, i32 256, i1 false, null, metadata !282, i32 0, metadata !284, i32 6} ; [ DW_TAG_subprogram ] [line 6] [f<44>]
!282 = metadata !{metadata !283}
!283 = metadata !{i32 786480, null, metadata !"M", metadata !9, i64 44, null, i32 0, i32 0} ; [ DW_TAG_template_value_parameter ]
!284 = metadata !{metadata !285}
!285 = metadata !{i32 786468}                     ; [ DW_TAG_base_type ] [line 0, size 0, align 0, offset 0]
!286 = metadata !{i32 786478, i32 0, metadata !279, metadata !"f<43>", metadata !"f<43>", metadata !"_ZN1CILi22EE1fILi43EEEiv", metadata !6, i32 6, metadata !276, i1 false, i1 false, i32 0, i32 0, null, i32 256, i1 false, null, metadata !287, i32 0, metadata !289, i32 6} ; [ DW_TAG_subprogram ] [line 6] [f<43>]
!287 = metadata !{metadata !288}
!288 = metadata !{i32 786480, null, metadata !"M", metadata !9, i64 43, null, i32 0, i32 0} ; [ DW_TAG_template_value_parameter ]
!289 = metadata !{metadata !290}
!290 = metadata !{i32 786468}                     ; [ DW_TAG_base_type ] [line 0, size 0, align 0, offset 0]
!291 = metadata !{i32 786478, i32 0, metadata !279, metadata !"~C", metadata !"~C", metadata !"", metadata !6, i32 5, metadata !292, i1 false, i1 false, i32 0, i32 0, null, i32 320, i1 false, null, null, i32 0, metadata !294, i32 5} ; [ DW_TAG_subprogram ] [line 5] [~C]
!292 = metadata !{i32 786453, i32 0, metadata !"", i32 0, i32 0, i64 0, i64 0, i64 0, i32 0, null, metadata !293, i32 0, i32 0} ; [ DW_TAG_subroutine_type ] [line 0, size 0, align 0, offset 0] [from ]
!293 = metadata !{null, metadata !278}
!294 = metadata !{metadata !295}
!295 = metadata !{i32 786468}                     ; [ DW_TAG_base_type ] [line 0, size 0, align 0, offset 0]
!296 = metadata !{metadata !297}
!297 = metadata !{i32 786480, null, metadata !"N", metadata !9, i64 22, null, i32 0, i32 0} ; [ DW_TAG_template_value_parameter ]
!298 = metadata !{i32 786478, i32 0, null, metadata !"f<43>", metadata !"f<43>", metadata !"_ZN1CILi22EE1fILi43EEEiv", metadata !6, i32 6, metadata !276, i1 false, i1 true, i32 0, i32 0, null, i32 256, i1 false, i32 (%struct.C.11*)* @_ZN1CILi22EE1fILi43EEEiv, metadata !287, metadata !286, metadata !1, i32 6} ; [ DW_TAG_subprogram ] [line 6] [def] [f<43>]
!299 = metadata !{i32 786478, i32 0, null, metadata !"f<42>", metadata !"f<42>", metadata !"_ZN1CILi21EE1fILi42EEEiv", metadata !6, i32 6, metadata !300, i1 false, i1 true, i32 0, i32 0, null, i32 256, i1 false, i32 (%struct.C.12*)* @_ZN1CILi21EE1fILi42EEEiv, metadata !306, metadata !305, metadata !1, i32 6} ; [ DW_TAG_subprogram ] [line 6] [def] [f<42>]
!300 = metadata !{i32 786453, i32 0, metadata !"", i32 0, i32 0, i64 0, i64 0, i64 0, i32 0, null, metadata !301, i32 0, i32 0} ; [ DW_TAG_subroutine_type ] [line 0, size 0, align 0, offset 0] [from ]
!301 = metadata !{metadata !9, metadata !302}
!302 = metadata !{i32 786447, i32 0, metadata !"", i32 0, i32 0, i64 64, i64 64, i64 0, i32 1088, metadata !303} ; [ DW_TAG_pointer_type ] [line 0, size 64, align 64, offset 0] [from C<21>]
!303 = metadata !{i32 786451, null, metadata !"C<21>", metadata !6, i32 5, i64 8, i64 8, i32 0, i32 0, null, metadata !304, i32 0, null, metadata !320} ; [ DW_TAG_structure_type ] [C<21>] [line 5, size 8, align 8, offset 0] [from ]
!304 = metadata !{metadata !305, metadata !310, metadata !315}
!305 = metadata !{i32 786478, i32 0, metadata !303, metadata !"f<42>", metadata !"f<42>", metadata !"_ZN1CILi21EE1fILi42EEEiv", metadata !6, i32 6, metadata !300, i1 false, i1 false, i32 0, i32 0, null, i32 256, i1 false, null, metadata !306, i32 0, metadata !308, i32 6} ; [ DW_TAG_subprogram ] [line 6] [f<42>]
!306 = metadata !{metadata !307}
!307 = metadata !{i32 786480, null, metadata !"M", metadata !9, i64 42, null, i32 0, i32 0} ; [ DW_TAG_template_value_parameter ]
!308 = metadata !{metadata !309}
!309 = metadata !{i32 786468}                     ; [ DW_TAG_base_type ] [line 0, size 0, align 0, offset 0]
!310 = metadata !{i32 786478, i32 0, metadata !303, metadata !"f<41>", metadata !"f<41>", metadata !"_ZN1CILi21EE1fILi41EEEiv", metadata !6, i32 6, metadata !300, i1 false, i1 false, i32 0, i32 0, null, i32 256, i1 false, null, metadata !311, i32 0, metadata !313, i32 6} ; [ DW_TAG_subprogram ] [line 6] [f<41>]
!311 = metadata !{metadata !312}
!312 = metadata !{i32 786480, null, metadata !"M", metadata !9, i64 41, null, i32 0, i32 0} ; [ DW_TAG_template_value_parameter ]
!313 = metadata !{metadata !314}
!314 = metadata !{i32 786468}                     ; [ DW_TAG_base_type ] [line 0, size 0, align 0, offset 0]
!315 = metadata !{i32 786478, i32 0, metadata !303, metadata !"~C", metadata !"~C", metadata !"", metadata !6, i32 5, metadata !316, i1 false, i1 false, i32 0, i32 0, null, i32 320, i1 false, null, null, i32 0, metadata !318, i32 5} ; [ DW_TAG_subprogram ] [line 5] [~C]
!316 = metadata !{i32 786453, i32 0, metadata !"", i32 0, i32 0, i64 0, i64 0, i64 0, i32 0, null, metadata !317, i32 0, i32 0} ; [ DW_TAG_subroutine_type ] [line 0, size 0, align 0, offset 0] [from ]
!317 = metadata !{null, metadata !302}
!318 = metadata !{metadata !319}
!319 = metadata !{i32 786468}                     ; [ DW_TAG_base_type ] [line 0, size 0, align 0, offset 0]
!320 = metadata !{metadata !321}
!321 = metadata !{i32 786480, null, metadata !"N", metadata !9, i64 21, null, i32 0, i32 0} ; [ DW_TAG_template_value_parameter ]
!322 = metadata !{i32 786478, i32 0, null, metadata !"f<41>", metadata !"f<41>", metadata !"_ZN1CILi21EE1fILi41EEEiv", metadata !6, i32 6, metadata !300, i1 false, i1 true, i32 0, i32 0, null, i32 256, i1 false, i32 (%struct.C.12*)* @_ZN1CILi21EE1fILi41EEEiv, metadata !311, metadata !310, metadata !1, i32 6} ; [ DW_TAG_subprogram ] [line 6] [def] [f<41>]
!323 = metadata !{i32 786478, i32 0, null, metadata !"f<40>", metadata !"f<40>", metadata !"_ZN1CILi20EE1fILi40EEEiv", metadata !6, i32 6, metadata !324, i1 false, i1 true, i32 0, i32 0, null, i32 256, i1 false, i32 (%struct.C.13*)* @_ZN1CILi20EE1fILi40EEEiv, metadata !330, metadata !329, metadata !1, i32 6} ; [ DW_TAG_subprogram ] [line 6] [def] [f<40>]
!324 = metadata !{i32 786453, i32 0, metadata !"", i32 0, i32 0, i64 0, i64 0, i64 0, i32 0, null, metadata !325, i32 0, i32 0} ; [ DW_TAG_subroutine_type ] [line 0, size 0, align 0, offset 0] [from ]
!325 = metadata !{metadata !9, metadata !326}
!326 = metadata !{i32 786447, i32 0, metadata !"", i32 0, i32 0, i64 64, i64 64, i64 0, i32 1088, metadata !327} ; [ DW_TAG_pointer_type ] [line 0, size 64, align 64, offset 0] [from C<20>]
!327 = metadata !{i32 786451, null, metadata !"C<20>", metadata !6, i32 5, i64 8, i64 8, i32 0, i32 0, null, metadata !328, i32 0, null, metadata !344} ; [ DW_TAG_structure_type ] [C<20>] [line 5, size 8, align 8, offset 0] [from ]
!328 = metadata !{metadata !329, metadata !334, metadata !339}
!329 = metadata !{i32 786478, i32 0, metadata !327, metadata !"f<40>", metadata !"f<40>", metadata !"_ZN1CILi20EE1fILi40EEEiv", metadata !6, i32 6, metadata !324, i1 false, i1 false, i32 0, i32 0, null, i32 256, i1 false, null, metadata !330, i32 0, metadata !332, i32 6} ; [ DW_TAG_subprogram ] [line 6] [f<40>]
!330 = metadata !{metadata !331}
!331 = metadata !{i32 786480, null, metadata !"M", metadata !9, i64 40, null, i32 0, i32 0} ; [ DW_TAG_template_value_parameter ]
!332 = metadata !{metadata !333}
!333 = metadata !{i32 786468}                     ; [ DW_TAG_base_type ] [line 0, size 0, align 0, offset 0]
!334 = metadata !{i32 786478, i32 0, metadata !327, metadata !"f<39>", metadata !"f<39>", metadata !"_ZN1CILi20EE1fILi39EEEiv", metadata !6, i32 6, metadata !324, i1 false, i1 false, i32 0, i32 0, null, i32 256, i1 false, null, metadata !335, i32 0, metadata !337, i32 6} ; [ DW_TAG_subprogram ] [line 6] [f<39>]
!335 = metadata !{metadata !336}
!336 = metadata !{i32 786480, null, metadata !"M", metadata !9, i64 39, null, i32 0, i32 0} ; [ DW_TAG_template_value_parameter ]
!337 = metadata !{metadata !338}
!338 = metadata !{i32 786468}                     ; [ DW_TAG_base_type ] [line 0, size 0, align 0, offset 0]
!339 = metadata !{i32 786478, i32 0, metadata !327, metadata !"~C", metadata !"~C", metadata !"", metadata !6, i32 5, metadata !340, i1 false, i1 false, i32 0, i32 0, null, i32 320, i1 false, null, null, i32 0, metadata !342, i32 5} ; [ DW_TAG_subprogram ] [line 5] [~C]
!340 = metadata !{i32 786453, i32 0, metadata !"", i32 0, i32 0, i64 0, i64 0, i64 0, i32 0, null, metadata !341, i32 0, i32 0} ; [ DW_TAG_subroutine_type ] [line 0, size 0, align 0, offset 0] [from ]
!341 = metadata !{null, metadata !326}
!342 = metadata !{metadata !343}
!343 = metadata !{i32 786468}                     ; [ DW_TAG_base_type ] [line 0, size 0, align 0, offset 0]
!344 = metadata !{metadata !345}
!345 = metadata !{i32 786480, null, metadata !"N", metadata !9, i64 20, null, i32 0, i32 0} ; [ DW_TAG_template_value_parameter ]
!346 = metadata !{i32 786478, i32 0, null, metadata !"f<39>", metadata !"f<39>", metadata !"_ZN1CILi20EE1fILi39EEEiv", metadata !6, i32 6, metadata !324, i1 false, i1 true, i32 0, i32 0, null, i32 256, i1 false, i32 (%struct.C.13*)* @_ZN1CILi20EE1fILi39EEEiv, metadata !335, metadata !334, metadata !1, i32 6} ; [ DW_TAG_subprogram ] [line 6] [def] [f<39>]
!347 = metadata !{i32 786478, i32 0, null, metadata !"f<38>", metadata !"f<38>", metadata !"_ZN1CILi19EE1fILi38EEEiv", metadata !6, i32 6, metadata !348, i1 false, i1 true, i32 0, i32 0, null, i32 256, i1 false, i32 (%struct.C.14*)* @_ZN1CILi19EE1fILi38EEEiv, metadata !354, metadata !353, metadata !1, i32 6} ; [ DW_TAG_subprogram ] [line 6] [def] [f<38>]
!348 = metadata !{i32 786453, i32 0, metadata !"", i32 0, i32 0, i64 0, i64 0, i64 0, i32 0, null, metadata !349, i32 0, i32 0} ; [ DW_TAG_subroutine_type ] [line 0, size 0, align 0, offset 0] [from ]
!349 = metadata !{metadata !9, metadata !350}
!350 = metadata !{i32 786447, i32 0, metadata !"", i32 0, i32 0, i64 64, i64 64, i64 0, i32 1088, metadata !351} ; [ DW_TAG_pointer_type ] [line 0, size 64, align 64, offset 0] [from C<19>]
!351 = metadata !{i32 786451, null, metadata !"C<19>", metadata !6, i32 5, i64 8, i64 8, i32 0, i32 0, null, metadata !352, i32 0, null, metadata !368} ; [ DW_TAG_structure_type ] [C<19>] [line 5, size 8, align 8, offset 0] [from ]
!352 = metadata !{metadata !353, metadata !358, metadata !363}
!353 = metadata !{i32 786478, i32 0, metadata !351, metadata !"f<38>", metadata !"f<38>", metadata !"_ZN1CILi19EE1fILi38EEEiv", metadata !6, i32 6, metadata !348, i1 false, i1 false, i32 0, i32 0, null, i32 256, i1 false, null, metadata !354, i32 0, metadata !356, i32 6} ; [ DW_TAG_subprogram ] [line 6] [f<38>]
!354 = metadata !{metadata !355}
!355 = metadata !{i32 786480, null, metadata !"M", metadata !9, i64 38, null, i32 0, i32 0} ; [ DW_TAG_template_value_parameter ]
!356 = metadata !{metadata !357}
!357 = metadata !{i32 786468}                     ; [ DW_TAG_base_type ] [line 0, size 0, align 0, offset 0]
!358 = metadata !{i32 786478, i32 0, metadata !351, metadata !"f<37>", metadata !"f<37>", metadata !"_ZN1CILi19EE1fILi37EEEiv", metadata !6, i32 6, metadata !348, i1 false, i1 false, i32 0, i32 0, null, i32 256, i1 false, null, metadata !359, i32 0, metadata !361, i32 6} ; [ DW_TAG_subprogram ] [line 6] [f<37>]
!359 = metadata !{metadata !360}
!360 = metadata !{i32 786480, null, metadata !"M", metadata !9, i64 37, null, i32 0, i32 0} ; [ DW_TAG_template_value_parameter ]
!361 = metadata !{metadata !362}
!362 = metadata !{i32 786468}                     ; [ DW_TAG_base_type ] [line 0, size 0, align 0, offset 0]
!363 = metadata !{i32 786478, i32 0, metadata !351, metadata !"~C", metadata !"~C", metadata !"", metadata !6, i32 5, metadata !364, i1 false, i1 false, i32 0, i32 0, null, i32 320, i1 false, null, null, i32 0, metadata !366, i32 5} ; [ DW_TAG_subprogram ] [line 5] [~C]
!364 = metadata !{i32 786453, i32 0, metadata !"", i32 0, i32 0, i64 0, i64 0, i64 0, i32 0, null, metadata !365, i32 0, i32 0} ; [ DW_TAG_subroutine_type ] [line 0, size 0, align 0, offset 0] [from ]
!365 = metadata !{null, metadata !350}
!366 = metadata !{metadata !367}
!367 = metadata !{i32 786468}                     ; [ DW_TAG_base_type ] [line 0, size 0, align 0, offset 0]
!368 = metadata !{metadata !369}
!369 = metadata !{i32 786480, null, metadata !"N", metadata !9, i64 19, null, i32 0, i32 0} ; [ DW_TAG_template_value_parameter ]
!370 = metadata !{i32 786478, i32 0, null, metadata !"f<37>", metadata !"f<37>", metadata !"_ZN1CILi19EE1fILi37EEEiv", metadata !6, i32 6, metadata !348, i1 false, i1 true, i32 0, i32 0, null, i32 256, i1 false, i32 (%struct.C.14*)* @_ZN1CILi19EE1fILi37EEEiv, metadata !359, metadata !358, metadata !1, i32 6} ; [ DW_TAG_subprogram ] [line 6] [def] [f<37>]
!371 = metadata !{i32 786478, i32 0, null, metadata !"f<36>", metadata !"f<36>", metadata !"_ZN1CILi18EE1fILi36EEEiv", metadata !6, i32 6, metadata !372, i1 false, i1 true, i32 0, i32 0, null, i32 256, i1 false, i32 (%struct.C.15*)* @_ZN1CILi18EE1fILi36EEEiv, metadata !378, metadata !377, metadata !1, i32 6} ; [ DW_TAG_subprogram ] [line 6] [def] [f<36>]
!372 = metadata !{i32 786453, i32 0, metadata !"", i32 0, i32 0, i64 0, i64 0, i64 0, i32 0, null, metadata !373, i32 0, i32 0} ; [ DW_TAG_subroutine_type ] [line 0, size 0, align 0, offset 0] [from ]
!373 = metadata !{metadata !9, metadata !374}
!374 = metadata !{i32 786447, i32 0, metadata !"", i32 0, i32 0, i64 64, i64 64, i64 0, i32 1088, metadata !375} ; [ DW_TAG_pointer_type ] [line 0, size 64, align 64, offset 0] [from C<18>]
!375 = metadata !{i32 786451, null, metadata !"C<18>", metadata !6, i32 5, i64 8, i64 8, i32 0, i32 0, null, metadata !376, i32 0, null, metadata !392} ; [ DW_TAG_structure_type ] [C<18>] [line 5, size 8, align 8, offset 0] [from ]
!376 = metadata !{metadata !377, metadata !382, metadata !387}
!377 = metadata !{i32 786478, i32 0, metadata !375, metadata !"f<36>", metadata !"f<36>", metadata !"_ZN1CILi18EE1fILi36EEEiv", metadata !6, i32 6, metadata !372, i1 false, i1 false, i32 0, i32 0, null, i32 256, i1 false, null, metadata !378, i32 0, metadata !380, i32 6} ; [ DW_TAG_subprogram ] [line 6] [f<36>]
!378 = metadata !{metadata !379}
!379 = metadata !{i32 786480, null, metadata !"M", metadata !9, i64 36, null, i32 0, i32 0} ; [ DW_TAG_template_value_parameter ]
!380 = metadata !{metadata !381}
!381 = metadata !{i32 786468}                     ; [ DW_TAG_base_type ] [line 0, size 0, align 0, offset 0]
!382 = metadata !{i32 786478, i32 0, metadata !375, metadata !"f<35>", metadata !"f<35>", metadata !"_ZN1CILi18EE1fILi35EEEiv", metadata !6, i32 6, metadata !372, i1 false, i1 false, i32 0, i32 0, null, i32 256, i1 false, null, metadata !383, i32 0, metadata !385, i32 6} ; [ DW_TAG_subprogram ] [line 6] [f<35>]
!383 = metadata !{metadata !384}
!384 = metadata !{i32 786480, null, metadata !"M", metadata !9, i64 35, null, i32 0, i32 0} ; [ DW_TAG_template_value_parameter ]
!385 = metadata !{metadata !386}
!386 = metadata !{i32 786468}                     ; [ DW_TAG_base_type ] [line 0, size 0, align 0, offset 0]
!387 = metadata !{i32 786478, i32 0, metadata !375, metadata !"~C", metadata !"~C", metadata !"", metadata !6, i32 5, metadata !388, i1 false, i1 false, i32 0, i32 0, null, i32 320, i1 false, null, null, i32 0, metadata !390, i32 5} ; [ DW_TAG_subprogram ] [line 5] [~C]
!388 = metadata !{i32 786453, i32 0, metadata !"", i32 0, i32 0, i64 0, i64 0, i64 0, i32 0, null, metadata !389, i32 0, i32 0} ; [ DW_TAG_subroutine_type ] [line 0, size 0, align 0, offset 0] [from ]
!389 = metadata !{null, metadata !374}
!390 = metadata !{metadata !391}
!391 = metadata !{i32 786468}                     ; [ DW_TAG_base_type ] [line 0, size 0, align 0, offset 0]
!392 = metadata !{metadata !393}
!393 = metadata !{i32 786480, null, metadata !"N", metadata !9, i64 18, null, i32 0, i32 0} ; [ DW_TAG_template_value_parameter ]
!394 = metadata !{i32 786478, i32 0, null, metadata !"f<35>", metadata !"f<35>", metadata !"_ZN1CILi18EE1fILi35EEEiv", metadata !6, i32 6, metadata !372, i1 false, i1 true, i32 0, i32 0, null, i32 256, i1 false, i32 (%struct.C.15*)* @_ZN1CILi18EE1fILi35EEEiv, metadata !383, metadata !382, metadata !1, i32 6} ; [ DW_TAG_subprogram ] [line 6] [def] [f<35>]
!395 = metadata !{i32 786478, i32 0, null, metadata !"f<34>", metadata !"f<34>", metadata !"_ZN1CILi17EE1fILi34EEEiv", metadata !6, i32 6, metadata !396, i1 false, i1 true, i32 0, i32 0, null, i32 256, i1 false, i32 (%struct.C.16*)* @_ZN1CILi17EE1fILi34EEEiv, metadata !402, metadata !401, metadata !1, i32 6} ; [ DW_TAG_subprogram ] [line 6] [def] [f<34>]
!396 = metadata !{i32 786453, i32 0, metadata !"", i32 0, i32 0, i64 0, i64 0, i64 0, i32 0, null, metadata !397, i32 0, i32 0} ; [ DW_TAG_subroutine_type ] [line 0, size 0, align 0, offset 0] [from ]
!397 = metadata !{metadata !9, metadata !398}
!398 = metadata !{i32 786447, i32 0, metadata !"", i32 0, i32 0, i64 64, i64 64, i64 0, i32 1088, metadata !399} ; [ DW_TAG_pointer_type ] [line 0, size 64, align 64, offset 0] [from C<17>]
!399 = metadata !{i32 786451, null, metadata !"C<17>", metadata !6, i32 5, i64 8, i64 8, i32 0, i32 0, null, metadata !400, i32 0, null, metadata !416} ; [ DW_TAG_structure_type ] [C<17>] [line 5, size 8, align 8, offset 0] [from ]
!400 = metadata !{metadata !401, metadata !406, metadata !411}
!401 = metadata !{i32 786478, i32 0, metadata !399, metadata !"f<34>", metadata !"f<34>", metadata !"_ZN1CILi17EE1fILi34EEEiv", metadata !6, i32 6, metadata !396, i1 false, i1 false, i32 0, i32 0, null, i32 256, i1 false, null, metadata !402, i32 0, metadata !404, i32 6} ; [ DW_TAG_subprogram ] [line 6] [f<34>]
!402 = metadata !{metadata !403}
!403 = metadata !{i32 786480, null, metadata !"M", metadata !9, i64 34, null, i32 0, i32 0} ; [ DW_TAG_template_value_parameter ]
!404 = metadata !{metadata !405}
!405 = metadata !{i32 786468}                     ; [ DW_TAG_base_type ] [line 0, size 0, align 0, offset 0]
!406 = metadata !{i32 786478, i32 0, metadata !399, metadata !"f<33>", metadata !"f<33>", metadata !"_ZN1CILi17EE1fILi33EEEiv", metadata !6, i32 6, metadata !396, i1 false, i1 false, i32 0, i32 0, null, i32 256, i1 false, null, metadata !407, i32 0, metadata !409, i32 6} ; [ DW_TAG_subprogram ] [line 6] [f<33>]
!407 = metadata !{metadata !408}
!408 = metadata !{i32 786480, null, metadata !"M", metadata !9, i64 33, null, i32 0, i32 0} ; [ DW_TAG_template_value_parameter ]
!409 = metadata !{metadata !410}
!410 = metadata !{i32 786468}                     ; [ DW_TAG_base_type ] [line 0, size 0, align 0, offset 0]
!411 = metadata !{i32 786478, i32 0, metadata !399, metadata !"~C", metadata !"~C", metadata !"", metadata !6, i32 5, metadata !412, i1 false, i1 false, i32 0, i32 0, null, i32 320, i1 false, null, null, i32 0, metadata !414, i32 5} ; [ DW_TAG_subprogram ] [line 5] [~C]
!412 = metadata !{i32 786453, i32 0, metadata !"", i32 0, i32 0, i64 0, i64 0, i64 0, i32 0, null, metadata !413, i32 0, i32 0} ; [ DW_TAG_subroutine_type ] [line 0, size 0, align 0, offset 0] [from ]
!413 = metadata !{null, metadata !398}
!414 = metadata !{metadata !415}
!415 = metadata !{i32 786468}                     ; [ DW_TAG_base_type ] [line 0, size 0, align 0, offset 0]
!416 = metadata !{metadata !417}
!417 = metadata !{i32 786480, null, metadata !"N", metadata !9, i64 17, null, i32 0, i32 0} ; [ DW_TAG_template_value_parameter ]
!418 = metadata !{i32 786478, i32 0, null, metadata !"f<33>", metadata !"f<33>", metadata !"_ZN1CILi17EE1fILi33EEEiv", metadata !6, i32 6, metadata !396, i1 false, i1 true, i32 0, i32 0, null, i32 256, i1 false, i32 (%struct.C.16*)* @_ZN1CILi17EE1fILi33EEEiv, metadata !407, metadata !406, metadata !1, i32 6} ; [ DW_TAG_subprogram ] [line 6] [def] [f<33>]
!419 = metadata !{i32 786478, i32 0, null, metadata !"f<32>", metadata !"f<32>", metadata !"_ZN1CILi16EE1fILi32EEEiv", metadata !6, i32 6, metadata !420, i1 false, i1 true, i32 0, i32 0, null, i32 256, i1 false, i32 (%struct.C.17*)* @_ZN1CILi16EE1fILi32EEEiv, metadata !426, metadata !425, metadata !1, i32 6} ; [ DW_TAG_subprogram ] [line 6] [def] [f<32>]
!420 = metadata !{i32 786453, i32 0, metadata !"", i32 0, i32 0, i64 0, i64 0, i64 0, i32 0, null, metadata !421, i32 0, i32 0} ; [ DW_TAG_subroutine_type ] [line 0, size 0, align 0, offset 0] [from ]
!421 = metadata !{metadata !9, metadata !422}
!422 = metadata !{i32 786447, i32 0, metadata !"", i32 0, i32 0, i64 64, i64 64, i64 0, i32 1088, metadata !423} ; [ DW_TAG_pointer_type ] [line 0, size 64, align 64, offset 0] [from C<16>]
!423 = metadata !{i32 786451, null, metadata !"C<16>", metadata !6, i32 5, i64 8, i64 8, i32 0, i32 0, null, metadata !424, i32 0, null, metadata !440} ; [ DW_TAG_structure_type ] [C<16>] [line 5, size 8, align 8, offset 0] [from ]
!424 = metadata !{metadata !425, metadata !430, metadata !435}
!425 = metadata !{i32 786478, i32 0, metadata !423, metadata !"f<32>", metadata !"f<32>", metadata !"_ZN1CILi16EE1fILi32EEEiv", metadata !6, i32 6, metadata !420, i1 false, i1 false, i32 0, i32 0, null, i32 256, i1 false, null, metadata !426, i32 0, metadata !428, i32 6} ; [ DW_TAG_subprogram ] [line 6] [f<32>]
!426 = metadata !{metadata !427}
!427 = metadata !{i32 786480, null, metadata !"M", metadata !9, i64 32, null, i32 0, i32 0} ; [ DW_TAG_template_value_parameter ]
!428 = metadata !{metadata !429}
!429 = metadata !{i32 786468}                     ; [ DW_TAG_base_type ] [line 0, size 0, align 0, offset 0]
!430 = metadata !{i32 786478, i32 0, metadata !423, metadata !"f<31>", metadata !"f<31>", metadata !"_ZN1CILi16EE1fILi31EEEiv", metadata !6, i32 6, metadata !420, i1 false, i1 false, i32 0, i32 0, null, i32 256, i1 false, null, metadata !431, i32 0, metadata !433, i32 6} ; [ DW_TAG_subprogram ] [line 6] [f<31>]
!431 = metadata !{metadata !432}
!432 = metadata !{i32 786480, null, metadata !"M", metadata !9, i64 31, null, i32 0, i32 0} ; [ DW_TAG_template_value_parameter ]
!433 = metadata !{metadata !434}
!434 = metadata !{i32 786468}                     ; [ DW_TAG_base_type ] [line 0, size 0, align 0, offset 0]
!435 = metadata !{i32 786478, i32 0, metadata !423, metadata !"~C", metadata !"~C", metadata !"", metadata !6, i32 5, metadata !436, i1 false, i1 false, i32 0, i32 0, null, i32 320, i1 false, null, null, i32 0, metadata !438, i32 5} ; [ DW_TAG_subprogram ] [line 5] [~C]
!436 = metadata !{i32 786453, i32 0, metadata !"", i32 0, i32 0, i64 0, i64 0, i64 0, i32 0, null, metadata !437, i32 0, i32 0} ; [ DW_TAG_subroutine_type ] [line 0, size 0, align 0, offset 0] [from ]
!437 = metadata !{null, metadata !422}
!438 = metadata !{metadata !439}
!439 = metadata !{i32 786468}                     ; [ DW_TAG_base_type ] [line 0, size 0, align 0, offset 0]
!440 = metadata !{metadata !441}
!441 = metadata !{i32 786480, null, metadata !"N", metadata !9, i64 16, null, i32 0, i32 0} ; [ DW_TAG_template_value_parameter ]
!442 = metadata !{i32 786478, i32 0, null, metadata !"f<31>", metadata !"f<31>", metadata !"_ZN1CILi16EE1fILi31EEEiv", metadata !6, i32 6, metadata !420, i1 false, i1 true, i32 0, i32 0, null, i32 256, i1 false, i32 (%struct.C.17*)* @_ZN1CILi16EE1fILi31EEEiv, metadata !431, metadata !430, metadata !1, i32 6} ; [ DW_TAG_subprogram ] [line 6] [def] [f<31>]
!443 = metadata !{i32 786478, i32 0, null, metadata !"f<30>", metadata !"f<30>", metadata !"_ZN1CILi15EE1fILi30EEEiv", metadata !6, i32 6, metadata !444, i1 false, i1 true, i32 0, i32 0, null, i32 256, i1 false, i32 (%struct.C.18*)* @_ZN1CILi15EE1fILi30EEEiv, metadata !450, metadata !449, metadata !1, i32 6} ; [ DW_TAG_subprogram ] [line 6] [def] [f<30>]
!444 = metadata !{i32 786453, i32 0, metadata !"", i32 0, i32 0, i64 0, i64 0, i64 0, i32 0, null, metadata !445, i32 0, i32 0} ; [ DW_TAG_subroutine_type ] [line 0, size 0, align 0, offset 0] [from ]
!445 = metadata !{metadata !9, metadata !446}
!446 = metadata !{i32 786447, i32 0, metadata !"", i32 0, i32 0, i64 64, i64 64, i64 0, i32 1088, metadata !447} ; [ DW_TAG_pointer_type ] [line 0, size 64, align 64, offset 0] [from C<15>]
!447 = metadata !{i32 786451, null, metadata !"C<15>", metadata !6, i32 5, i64 8, i64 8, i32 0, i32 0, null, metadata !448, i32 0, null, metadata !464} ; [ DW_TAG_structure_type ] [C<15>] [line 5, size 8, align 8, offset 0] [from ]
!448 = metadata !{metadata !449, metadata !454, metadata !459}
!449 = metadata !{i32 786478, i32 0, metadata !447, metadata !"f<30>", metadata !"f<30>", metadata !"_ZN1CILi15EE1fILi30EEEiv", metadata !6, i32 6, metadata !444, i1 false, i1 false, i32 0, i32 0, null, i32 256, i1 false, null, metadata !450, i32 0, metadata !452, i32 6} ; [ DW_TAG_subprogram ] [line 6] [f<30>]
!450 = metadata !{metadata !451}
!451 = metadata !{i32 786480, null, metadata !"M", metadata !9, i64 30, null, i32 0, i32 0} ; [ DW_TAG_template_value_parameter ]
!452 = metadata !{metadata !453}
!453 = metadata !{i32 786468}                     ; [ DW_TAG_base_type ] [line 0, size 0, align 0, offset 0]
!454 = metadata !{i32 786478, i32 0, metadata !447, metadata !"f<29>", metadata !"f<29>", metadata !"_ZN1CILi15EE1fILi29EEEiv", metadata !6, i32 6, metadata !444, i1 false, i1 false, i32 0, i32 0, null, i32 256, i1 false, null, metadata !455, i32 0, metadata !457, i32 6} ; [ DW_TAG_subprogram ] [line 6] [f<29>]
!455 = metadata !{metadata !456}
!456 = metadata !{i32 786480, null, metadata !"M", metadata !9, i64 29, null, i32 0, i32 0} ; [ DW_TAG_template_value_parameter ]
!457 = metadata !{metadata !458}
!458 = metadata !{i32 786468}                     ; [ DW_TAG_base_type ] [line 0, size 0, align 0, offset 0]
!459 = metadata !{i32 786478, i32 0, metadata !447, metadata !"~C", metadata !"~C", metadata !"", metadata !6, i32 5, metadata !460, i1 false, i1 false, i32 0, i32 0, null, i32 320, i1 false, null, null, i32 0, metadata !462, i32 5} ; [ DW_TAG_subprogram ] [line 5] [~C]
!460 = metadata !{i32 786453, i32 0, metadata !"", i32 0, i32 0, i64 0, i64 0, i64 0, i32 0, null, metadata !461, i32 0, i32 0} ; [ DW_TAG_subroutine_type ] [line 0, size 0, align 0, offset 0] [from ]
!461 = metadata !{null, metadata !446}
!462 = metadata !{metadata !463}
!463 = metadata !{i32 786468}                     ; [ DW_TAG_base_type ] [line 0, size 0, align 0, offset 0]
!464 = metadata !{metadata !465}
!465 = metadata !{i32 786480, null, metadata !"N", metadata !9, i64 15, null, i32 0, i32 0} ; [ DW_TAG_template_value_parameter ]
!466 = metadata !{i32 786478, i32 0, null, metadata !"f<29>", metadata !"f<29>", metadata !"_ZN1CILi15EE1fILi29EEEiv", metadata !6, i32 6, metadata !444, i1 false, i1 true, i32 0, i32 0, null, i32 256, i1 false, i32 (%struct.C.18*)* @_ZN1CILi15EE1fILi29EEEiv, metadata !455, metadata !454, metadata !1, i32 6} ; [ DW_TAG_subprogram ] [line 6] [def] [f<29>]
!467 = metadata !{i32 786478, i32 0, null, metadata !"f<28>", metadata !"f<28>", metadata !"_ZN1CILi14EE1fILi28EEEiv", metadata !6, i32 6, metadata !468, i1 false, i1 true, i32 0, i32 0, null, i32 256, i1 false, i32 (%struct.C.19*)* @_ZN1CILi14EE1fILi28EEEiv, metadata !474, metadata !473, metadata !1, i32 6} ; [ DW_TAG_subprogram ] [line 6] [def] [f<28>]
!468 = metadata !{i32 786453, i32 0, metadata !"", i32 0, i32 0, i64 0, i64 0, i64 0, i32 0, null, metadata !469, i32 0, i32 0} ; [ DW_TAG_subroutine_type ] [line 0, size 0, align 0, offset 0] [from ]
!469 = metadata !{metadata !9, metadata !470}
!470 = metadata !{i32 786447, i32 0, metadata !"", i32 0, i32 0, i64 64, i64 64, i64 0, i32 1088, metadata !471} ; [ DW_TAG_pointer_type ] [line 0, size 64, align 64, offset 0] [from C<14>]
!471 = metadata !{i32 786451, null, metadata !"C<14>", metadata !6, i32 5, i64 8, i64 8, i32 0, i32 0, null, metadata !472, i32 0, null, metadata !488} ; [ DW_TAG_structure_type ] [C<14>] [line 5, size 8, align 8, offset 0] [from ]
!472 = metadata !{metadata !473, metadata !478, metadata !483}
!473 = metadata !{i32 786478, i32 0, metadata !471, metadata !"f<28>", metadata !"f<28>", metadata !"_ZN1CILi14EE1fILi28EEEiv", metadata !6, i32 6, metadata !468, i1 false, i1 false, i32 0, i32 0, null, i32 256, i1 false, null, metadata !474, i32 0, metadata !476, i32 6} ; [ DW_TAG_subprogram ] [line 6] [f<28>]
!474 = metadata !{metadata !475}
!475 = metadata !{i32 786480, null, metadata !"M", metadata !9, i64 28, null, i32 0, i32 0} ; [ DW_TAG_template_value_parameter ]
!476 = metadata !{metadata !477}
!477 = metadata !{i32 786468}                     ; [ DW_TAG_base_type ] [line 0, size 0, align 0, offset 0]
!478 = metadata !{i32 786478, i32 0, metadata !471, metadata !"f<27>", metadata !"f<27>", metadata !"_ZN1CILi14EE1fILi27EEEiv", metadata !6, i32 6, metadata !468, i1 false, i1 false, i32 0, i32 0, null, i32 256, i1 false, null, metadata !479, i32 0, metadata !481, i32 6} ; [ DW_TAG_subprogram ] [line 6] [f<27>]
!479 = metadata !{metadata !480}
!480 = metadata !{i32 786480, null, metadata !"M", metadata !9, i64 27, null, i32 0, i32 0} ; [ DW_TAG_template_value_parameter ]
!481 = metadata !{metadata !482}
!482 = metadata !{i32 786468}                     ; [ DW_TAG_base_type ] [line 0, size 0, align 0, offset 0]
!483 = metadata !{i32 786478, i32 0, metadata !471, metadata !"~C", metadata !"~C", metadata !"", metadata !6, i32 5, metadata !484, i1 false, i1 false, i32 0, i32 0, null, i32 320, i1 false, null, null, i32 0, metadata !486, i32 5} ; [ DW_TAG_subprogram ] [line 5] [~C]
!484 = metadata !{i32 786453, i32 0, metadata !"", i32 0, i32 0, i64 0, i64 0, i64 0, i32 0, null, metadata !485, i32 0, i32 0} ; [ DW_TAG_subroutine_type ] [line 0, size 0, align 0, offset 0] [from ]
!485 = metadata !{null, metadata !470}
!486 = metadata !{metadata !487}
!487 = metadata !{i32 786468}                     ; [ DW_TAG_base_type ] [line 0, size 0, align 0, offset 0]
!488 = metadata !{metadata !489}
!489 = metadata !{i32 786480, null, metadata !"N", metadata !9, i64 14, null, i32 0, i32 0} ; [ DW_TAG_template_value_parameter ]
!490 = metadata !{i32 786478, i32 0, null, metadata !"f<27>", metadata !"f<27>", metadata !"_ZN1CILi14EE1fILi27EEEiv", metadata !6, i32 6, metadata !468, i1 false, i1 true, i32 0, i32 0, null, i32 256, i1 false, i32 (%struct.C.19*)* @_ZN1CILi14EE1fILi27EEEiv, metadata !479, metadata !478, metadata !1, i32 6} ; [ DW_TAG_subprogram ] [line 6] [def] [f<27>]
!491 = metadata !{i32 786478, i32 0, null, metadata !"f<26>", metadata !"f<26>", metadata !"_ZN1CILi13EE1fILi26EEEiv", metadata !6, i32 6, metadata !492, i1 false, i1 true, i32 0, i32 0, null, i32 256, i1 false, i32 (%struct.C.20*)* @_ZN1CILi13EE1fILi26EEEiv, metadata !498, metadata !497, metadata !1, i32 6} ; [ DW_TAG_subprogram ] [line 6] [def] [f<26>]
!492 = metadata !{i32 786453, i32 0, metadata !"", i32 0, i32 0, i64 0, i64 0, i64 0, i32 0, null, metadata !493, i32 0, i32 0} ; [ DW_TAG_subroutine_type ] [line 0, size 0, align 0, offset 0] [from ]
!493 = metadata !{metadata !9, metadata !494}
!494 = metadata !{i32 786447, i32 0, metadata !"", i32 0, i32 0, i64 64, i64 64, i64 0, i32 1088, metadata !495} ; [ DW_TAG_pointer_type ] [line 0, size 64, align 64, offset 0] [from C<13>]
!495 = metadata !{i32 786451, null, metadata !"C<13>", metadata !6, i32 5, i64 8, i64 8, i32 0, i32 0, null, metadata !496, i32 0, null, metadata !512} ; [ DW_TAG_structure_type ] [C<13>] [line 5, size 8, align 8, offset 0] [from ]
!496 = metadata !{metadata !497, metadata !502, metadata !507}
!497 = metadata !{i32 786478, i32 0, metadata !495, metadata !"f<26>", metadata !"f<26>", metadata !"_ZN1CILi13EE1fILi26EEEiv", metadata !6, i32 6, metadata !492, i1 false, i1 false, i32 0, i32 0, null, i32 256, i1 false, null, metadata !498, i32 0, metadata !500, i32 6} ; [ DW_TAG_subprogram ] [line 6] [f<26>]
!498 = metadata !{metadata !499}
!499 = metadata !{i32 786480, null, metadata !"M", metadata !9, i64 26, null, i32 0, i32 0} ; [ DW_TAG_template_value_parameter ]
!500 = metadata !{metadata !501}
!501 = metadata !{i32 786468}                     ; [ DW_TAG_base_type ] [line 0, size 0, align 0, offset 0]
!502 = metadata !{i32 786478, i32 0, metadata !495, metadata !"f<25>", metadata !"f<25>", metadata !"_ZN1CILi13EE1fILi25EEEiv", metadata !6, i32 6, metadata !492, i1 false, i1 false, i32 0, i32 0, null, i32 256, i1 false, null, metadata !503, i32 0, metadata !505, i32 6} ; [ DW_TAG_subprogram ] [line 6] [f<25>]
!503 = metadata !{metadata !504}
!504 = metadata !{i32 786480, null, metadata !"M", metadata !9, i64 25, null, i32 0, i32 0} ; [ DW_TAG_template_value_parameter ]
!505 = metadata !{metadata !506}
!506 = metadata !{i32 786468}                     ; [ DW_TAG_base_type ] [line 0, size 0, align 0, offset 0]
!507 = metadata !{i32 786478, i32 0, metadata !495, metadata !"~C", metadata !"~C", metadata !"", metadata !6, i32 5, metadata !508, i1 false, i1 false, i32 0, i32 0, null, i32 320, i1 false, null, null, i32 0, metadata !510, i32 5} ; [ DW_TAG_subprogram ] [line 5] [~C]
!508 = metadata !{i32 786453, i32 0, metadata !"", i32 0, i32 0, i64 0, i64 0, i64 0, i32 0, null, metadata !509, i32 0, i32 0} ; [ DW_TAG_subroutine_type ] [line 0, size 0, align 0, offset 0] [from ]
!509 = metadata !{null, metadata !494}
!510 = metadata !{metadata !511}
!511 = metadata !{i32 786468}                     ; [ DW_TAG_base_type ] [line 0, size 0, align 0, offset 0]
!512 = metadata !{metadata !513}
!513 = metadata !{i32 786480, null, metadata !"N", metadata !9, i64 13, null, i32 0, i32 0} ; [ DW_TAG_template_value_parameter ]
!514 = metadata !{i32 786478, i32 0, null, metadata !"f<25>", metadata !"f<25>", metadata !"_ZN1CILi13EE1fILi25EEEiv", metadata !6, i32 6, metadata !492, i1 false, i1 true, i32 0, i32 0, null, i32 256, i1 false, i32 (%struct.C.20*)* @_ZN1CILi13EE1fILi25EEEiv, metadata !503, metadata !502, metadata !1, i32 6} ; [ DW_TAG_subprogram ] [line 6] [def] [f<25>]
!515 = metadata !{i32 786478, i32 0, null, metadata !"f<24>", metadata !"f<24>", metadata !"_ZN1CILi12EE1fILi24EEEiv", metadata !6, i32 6, metadata !516, i1 false, i1 true, i32 0, i32 0, null, i32 256, i1 false, i32 (%struct.C.21*)* @_ZN1CILi12EE1fILi24EEEiv, metadata !522, metadata !521, metadata !1, i32 6} ; [ DW_TAG_subprogram ] [line 6] [def] [f<24>]
!516 = metadata !{i32 786453, i32 0, metadata !"", i32 0, i32 0, i64 0, i64 0, i64 0, i32 0, null, metadata !517, i32 0, i32 0} ; [ DW_TAG_subroutine_type ] [line 0, size 0, align 0, offset 0] [from ]
!517 = metadata !{metadata !9, metadata !518}
!518 = metadata !{i32 786447, i32 0, metadata !"", i32 0, i32 0, i64 64, i64 64, i64 0, i32 1088, metadata !519} ; [ DW_TAG_pointer_type ] [line 0, size 64, align 64, offset 0] [from C<12>]
!519 = metadata !{i32 786451, null, metadata !"C<12>", metadata !6, i32 5, i64 8, i64 8, i32 0, i32 0, null, metadata !520, i32 0, null, metadata !536} ; [ DW_TAG_structure_type ] [C<12>] [line 5, size 8, align 8, offset 0] [from ]
!520 = metadata !{metadata !521, metadata !526, metadata !531}
!521 = metadata !{i32 786478, i32 0, metadata !519, metadata !"f<24>", metadata !"f<24>", metadata !"_ZN1CILi12EE1fILi24EEEiv", metadata !6, i32 6, metadata !516, i1 false, i1 false, i32 0, i32 0, null, i32 256, i1 false, null, metadata !522, i32 0, metadata !524, i32 6} ; [ DW_TAG_subprogram ] [line 6] [f<24>]
!522 = metadata !{metadata !523}
!523 = metadata !{i32 786480, null, metadata !"M", metadata !9, i64 24, null, i32 0, i32 0} ; [ DW_TAG_template_value_parameter ]
!524 = metadata !{metadata !525}
!525 = metadata !{i32 786468}                     ; [ DW_TAG_base_type ] [line 0, size 0, align 0, offset 0]
!526 = metadata !{i32 786478, i32 0, metadata !519, metadata !"f<23>", metadata !"f<23>", metadata !"_ZN1CILi12EE1fILi23EEEiv", metadata !6, i32 6, metadata !516, i1 false, i1 false, i32 0, i32 0, null, i32 256, i1 false, null, metadata !527, i32 0, metadata !529, i32 6} ; [ DW_TAG_subprogram ] [line 6] [f<23>]
!527 = metadata !{metadata !528}
!528 = metadata !{i32 786480, null, metadata !"M", metadata !9, i64 23, null, i32 0, i32 0} ; [ DW_TAG_template_value_parameter ]
!529 = metadata !{metadata !530}
!530 = metadata !{i32 786468}                     ; [ DW_TAG_base_type ] [line 0, size 0, align 0, offset 0]
!531 = metadata !{i32 786478, i32 0, metadata !519, metadata !"~C", metadata !"~C", metadata !"", metadata !6, i32 5, metadata !532, i1 false, i1 false, i32 0, i32 0, null, i32 320, i1 false, null, null, i32 0, metadata !534, i32 5} ; [ DW_TAG_subprogram ] [line 5] [~C]
!532 = metadata !{i32 786453, i32 0, metadata !"", i32 0, i32 0, i64 0, i64 0, i64 0, i32 0, null, metadata !533, i32 0, i32 0} ; [ DW_TAG_subroutine_type ] [line 0, size 0, align 0, offset 0] [from ]
!533 = metadata !{null, metadata !518}
!534 = metadata !{metadata !535}
!535 = metadata !{i32 786468}                     ; [ DW_TAG_base_type ] [line 0, size 0, align 0, offset 0]
!536 = metadata !{metadata !537}
!537 = metadata !{i32 786480, null, metadata !"N", metadata !9, i64 12, null, i32 0, i32 0} ; [ DW_TAG_template_value_parameter ]
!538 = metadata !{i32 786478, i32 0, null, metadata !"f<23>", metadata !"f<23>", metadata !"_ZN1CILi12EE1fILi23EEEiv", metadata !6, i32 6, metadata !516, i1 false, i1 true, i32 0, i32 0, null, i32 256, i1 false, i32 (%struct.C.21*)* @_ZN1CILi12EE1fILi23EEEiv, metadata !527, metadata !526, metadata !1, i32 6} ; [ DW_TAG_subprogram ] [line 6] [def] [f<23>]
!539 = metadata !{i32 786478, i32 0, null, metadata !"f<22>", metadata !"f<22>", metadata !"_ZN1CILi11EE1fILi22EEEiv", metadata !6, i32 6, metadata !540, i1 false, i1 true, i32 0, i32 0, null, i32 256, i1 false, i32 (%struct.C.22*)* @_ZN1CILi11EE1fILi22EEEiv, metadata !546, metadata !545, metadata !1, i32 6} ; [ DW_TAG_subprogram ] [line 6] [def] [f<22>]
!540 = metadata !{i32 786453, i32 0, metadata !"", i32 0, i32 0, i64 0, i64 0, i64 0, i32 0, null, metadata !541, i32 0, i32 0} ; [ DW_TAG_subroutine_type ] [line 0, size 0, align 0, offset 0] [from ]
!541 = metadata !{metadata !9, metadata !542}
!542 = metadata !{i32 786447, i32 0, metadata !"", i32 0, i32 0, i64 64, i64 64, i64 0, i32 1088, metadata !543} ; [ DW_TAG_pointer_type ] [line 0, size 64, align 64, offset 0] [from C<11>]
!543 = metadata !{i32 786451, null, metadata !"C<11>", metadata !6, i32 5, i64 8, i64 8, i32 0, i32 0, null, metadata !544, i32 0, null, metadata !560} ; [ DW_TAG_structure_type ] [C<11>] [line 5, size 8, align 8, offset 0] [from ]
!544 = metadata !{metadata !545, metadata !550, metadata !555}
!545 = metadata !{i32 786478, i32 0, metadata !543, metadata !"f<22>", metadata !"f<22>", metadata !"_ZN1CILi11EE1fILi22EEEiv", metadata !6, i32 6, metadata !540, i1 false, i1 false, i32 0, i32 0, null, i32 256, i1 false, null, metadata !546, i32 0, metadata !548, i32 6} ; [ DW_TAG_subprogram ] [line 6] [f<22>]
!546 = metadata !{metadata !547}
!547 = metadata !{i32 786480, null, metadata !"M", metadata !9, i64 22, null, i32 0, i32 0} ; [ DW_TAG_template_value_parameter ]
!548 = metadata !{metadata !549}
!549 = metadata !{i32 786468}                     ; [ DW_TAG_base_type ] [line 0, size 0, align 0, offset 0]
!550 = metadata !{i32 786478, i32 0, metadata !543, metadata !"f<21>", metadata !"f<21>", metadata !"_ZN1CILi11EE1fILi21EEEiv", metadata !6, i32 6, metadata !540, i1 false, i1 false, i32 0, i32 0, null, i32 256, i1 false, null, metadata !551, i32 0, metadata !553, i32 6} ; [ DW_TAG_subprogram ] [line 6] [f<21>]
!551 = metadata !{metadata !552}
!552 = metadata !{i32 786480, null, metadata !"M", metadata !9, i64 21, null, i32 0, i32 0} ; [ DW_TAG_template_value_parameter ]
!553 = metadata !{metadata !554}
!554 = metadata !{i32 786468}                     ; [ DW_TAG_base_type ] [line 0, size 0, align 0, offset 0]
!555 = metadata !{i32 786478, i32 0, metadata !543, metadata !"~C", metadata !"~C", metadata !"", metadata !6, i32 5, metadata !556, i1 false, i1 false, i32 0, i32 0, null, i32 320, i1 false, null, null, i32 0, metadata !558, i32 5} ; [ DW_TAG_subprogram ] [line 5] [~C]
!556 = metadata !{i32 786453, i32 0, metadata !"", i32 0, i32 0, i64 0, i64 0, i64 0, i32 0, null, metadata !557, i32 0, i32 0} ; [ DW_TAG_subroutine_type ] [line 0, size 0, align 0, offset 0] [from ]
!557 = metadata !{null, metadata !542}
!558 = metadata !{metadata !559}
!559 = metadata !{i32 786468}                     ; [ DW_TAG_base_type ] [line 0, size 0, align 0, offset 0]
!560 = metadata !{metadata !561}
!561 = metadata !{i32 786480, null, metadata !"N", metadata !9, i64 11, null, i32 0, i32 0} ; [ DW_TAG_template_value_parameter ]
!562 = metadata !{i32 786478, i32 0, null, metadata !"f<21>", metadata !"f<21>", metadata !"_ZN1CILi11EE1fILi21EEEiv", metadata !6, i32 6, metadata !540, i1 false, i1 true, i32 0, i32 0, null, i32 256, i1 false, i32 (%struct.C.22*)* @_ZN1CILi11EE1fILi21EEEiv, metadata !551, metadata !550, metadata !1, i32 6} ; [ DW_TAG_subprogram ] [line 6] [def] [f<21>]
!563 = metadata !{i32 786478, i32 0, null, metadata !"f<20>", metadata !"f<20>", metadata !"_ZN1CILi10EE1fILi20EEEiv", metadata !6, i32 6, metadata !564, i1 false, i1 true, i32 0, i32 0, null, i32 256, i1 false, i32 (%struct.C.23*)* @_ZN1CILi10EE1fILi20EEEiv, metadata !570, metadata !569, metadata !1, i32 6} ; [ DW_TAG_subprogram ] [line 6] [def] [f<20>]
!564 = metadata !{i32 786453, i32 0, metadata !"", i32 0, i32 0, i64 0, i64 0, i64 0, i32 0, null, metadata !565, i32 0, i32 0} ; [ DW_TAG_subroutine_type ] [line 0, size 0, align 0, offset 0] [from ]
!565 = metadata !{metadata !9, metadata !566}
!566 = metadata !{i32 786447, i32 0, metadata !"", i32 0, i32 0, i64 64, i64 64, i64 0, i32 1088, metadata !567} ; [ DW_TAG_pointer_type ] [line 0, size 64, align 64, offset 0] [from C<10>]
!567 = metadata !{i32 786451, null, metadata !"C<10>", metadata !6, i32 5, i64 8, i64 8, i32 0, i32 0, null, metadata !568, i32 0, null, metadata !584} ; [ DW_TAG_structure_type ] [C<10>] [line 5, size 8, align 8, offset 0] [from ]
!568 = metadata !{metadata !569, metadata !574, metadata !579}
!569 = metadata !{i32 786478, i32 0, metadata !567, metadata !"f<20>", metadata !"f<20>", metadata !"_ZN1CILi10EE1fILi20EEEiv", metadata !6, i32 6, metadata !564, i1 false, i1 false, i32 0, i32 0, null, i32 256, i1 false, null, metadata !570, i32 0, metadata !572, i32 6} ; [ DW_TAG_subprogram ] [line 6] [f<20>]
!570 = metadata !{metadata !571}
!571 = metadata !{i32 786480, null, metadata !"M", metadata !9, i64 20, null, i32 0, i32 0} ; [ DW_TAG_template_value_parameter ]
!572 = metadata !{metadata !573}
!573 = metadata !{i32 786468}                     ; [ DW_TAG_base_type ] [line 0, size 0, align 0, offset 0]
!574 = metadata !{i32 786478, i32 0, metadata !567, metadata !"f<19>", metadata !"f<19>", metadata !"_ZN1CILi10EE1fILi19EEEiv", metadata !6, i32 6, metadata !564, i1 false, i1 false, i32 0, i32 0, null, i32 256, i1 false, null, metadata !575, i32 0, metadata !577, i32 6} ; [ DW_TAG_subprogram ] [line 6] [f<19>]
!575 = metadata !{metadata !576}
!576 = metadata !{i32 786480, null, metadata !"M", metadata !9, i64 19, null, i32 0, i32 0} ; [ DW_TAG_template_value_parameter ]
!577 = metadata !{metadata !578}
!578 = metadata !{i32 786468}                     ; [ DW_TAG_base_type ] [line 0, size 0, align 0, offset 0]
!579 = metadata !{i32 786478, i32 0, metadata !567, metadata !"~C", metadata !"~C", metadata !"", metadata !6, i32 5, metadata !580, i1 false, i1 false, i32 0, i32 0, null, i32 320, i1 false, null, null, i32 0, metadata !582, i32 5} ; [ DW_TAG_subprogram ] [line 5] [~C]
!580 = metadata !{i32 786453, i32 0, metadata !"", i32 0, i32 0, i64 0, i64 0, i64 0, i32 0, null, metadata !581, i32 0, i32 0} ; [ DW_TAG_subroutine_type ] [line 0, size 0, align 0, offset 0] [from ]
!581 = metadata !{null, metadata !566}
!582 = metadata !{metadata !583}
!583 = metadata !{i32 786468}                     ; [ DW_TAG_base_type ] [line 0, size 0, align 0, offset 0]
!584 = metadata !{metadata !585}
!585 = metadata !{i32 786480, null, metadata !"N", metadata !9, i64 10, null, i32 0, i32 0} ; [ DW_TAG_template_value_parameter ]
!586 = metadata !{i32 786478, i32 0, null, metadata !"f<19>", metadata !"f<19>", metadata !"_ZN1CILi10EE1fILi19EEEiv", metadata !6, i32 6, metadata !564, i1 false, i1 true, i32 0, i32 0, null, i32 256, i1 false, i32 (%struct.C.23*)* @_ZN1CILi10EE1fILi19EEEiv, metadata !575, metadata !574, metadata !1, i32 6} ; [ DW_TAG_subprogram ] [line 6] [def] [f<19>]
!587 = metadata !{i32 786478, i32 0, null, metadata !"f<18>", metadata !"f<18>", metadata !"_ZN1CILi9EE1fILi18EEEiv", metadata !6, i32 6, metadata !588, i1 false, i1 true, i32 0, i32 0, null, i32 256, i1 false, i32 (%struct.C.24*)* @_ZN1CILi9EE1fILi18EEEiv, metadata !594, metadata !593, metadata !1, i32 6} ; [ DW_TAG_subprogram ] [line 6] [def] [f<18>]
!588 = metadata !{i32 786453, i32 0, metadata !"", i32 0, i32 0, i64 0, i64 0, i64 0, i32 0, null, metadata !589, i32 0, i32 0} ; [ DW_TAG_subroutine_type ] [line 0, size 0, align 0, offset 0] [from ]
!589 = metadata !{metadata !9, metadata !590}
!590 = metadata !{i32 786447, i32 0, metadata !"", i32 0, i32 0, i64 64, i64 64, i64 0, i32 1088, metadata !591} ; [ DW_TAG_pointer_type ] [line 0, size 64, align 64, offset 0] [from C<9>]
!591 = metadata !{i32 786451, null, metadata !"C<9>", metadata !6, i32 5, i64 8, i64 8, i32 0, i32 0, null, metadata !592, i32 0, null, metadata !608} ; [ DW_TAG_structure_type ] [C<9>] [line 5, size 8, align 8, offset 0] [from ]
!592 = metadata !{metadata !593, metadata !598, metadata !603}
!593 = metadata !{i32 786478, i32 0, metadata !591, metadata !"f<18>", metadata !"f<18>", metadata !"_ZN1CILi9EE1fILi18EEEiv", metadata !6, i32 6, metadata !588, i1 false, i1 false, i32 0, i32 0, null, i32 256, i1 false, null, metadata !594, i32 0, metadata !596, i32 6} ; [ DW_TAG_subprogram ] [line 6] [f<18>]
!594 = metadata !{metadata !595}
!595 = metadata !{i32 786480, null, metadata !"M", metadata !9, i64 18, null, i32 0, i32 0} ; [ DW_TAG_template_value_parameter ]
!596 = metadata !{metadata !597}
!597 = metadata !{i32 786468}                     ; [ DW_TAG_base_type ] [line 0, size 0, align 0, offset 0]
!598 = metadata !{i32 786478, i32 0, metadata !591, metadata !"f<17>", metadata !"f<17>", metadata !"_ZN1CILi9EE1fILi17EEEiv", metadata !6, i32 6, metadata !588, i1 false, i1 false, i32 0, i32 0, null, i32 256, i1 false, null, metadata !599, i32 0, metadata !601, i32 6} ; [ DW_TAG_subprogram ] [line 6] [f<17>]
!599 = metadata !{metadata !600}
!600 = metadata !{i32 786480, null, metadata !"M", metadata !9, i64 17, null, i32 0, i32 0} ; [ DW_TAG_template_value_parameter ]
!601 = metadata !{metadata !602}
!602 = metadata !{i32 786468}                     ; [ DW_TAG_base_type ] [line 0, size 0, align 0, offset 0]
!603 = metadata !{i32 786478, i32 0, metadata !591, metadata !"~C", metadata !"~C", metadata !"", metadata !6, i32 5, metadata !604, i1 false, i1 false, i32 0, i32 0, null, i32 320, i1 false, null, null, i32 0, metadata !606, i32 5} ; [ DW_TAG_subprogram ] [line 5] [~C]
!604 = metadata !{i32 786453, i32 0, metadata !"", i32 0, i32 0, i64 0, i64 0, i64 0, i32 0, null, metadata !605, i32 0, i32 0} ; [ DW_TAG_subroutine_type ] [line 0, size 0, align 0, offset 0] [from ]
!605 = metadata !{null, metadata !590}
!606 = metadata !{metadata !607}
!607 = metadata !{i32 786468}                     ; [ DW_TAG_base_type ] [line 0, size 0, align 0, offset 0]
!608 = metadata !{metadata !609}
!609 = metadata !{i32 786480, null, metadata !"N", metadata !9, i64 9, null, i32 0, i32 0} ; [ DW_TAG_template_value_parameter ]
!610 = metadata !{i32 786478, i32 0, null, metadata !"f<17>", metadata !"f<17>", metadata !"_ZN1CILi9EE1fILi17EEEiv", metadata !6, i32 6, metadata !588, i1 false, i1 true, i32 0, i32 0, null, i32 256, i1 false, i32 (%struct.C.24*)* @_ZN1CILi9EE1fILi17EEEiv, metadata !599, metadata !598, metadata !1, i32 6} ; [ DW_TAG_subprogram ] [line 6] [def] [f<17>]
!611 = metadata !{i32 786478, i32 0, null, metadata !"f<16>", metadata !"f<16>", metadata !"_ZN1CILi8EE1fILi16EEEiv", metadata !6, i32 6, metadata !612, i1 false, i1 true, i32 0, i32 0, null, i32 256, i1 false, i32 (%struct.C.25*)* @_ZN1CILi8EE1fILi16EEEiv, metadata !618, metadata !617, metadata !1, i32 6} ; [ DW_TAG_subprogram ] [line 6] [def] [f<16>]
!612 = metadata !{i32 786453, i32 0, metadata !"", i32 0, i32 0, i64 0, i64 0, i64 0, i32 0, null, metadata !613, i32 0, i32 0} ; [ DW_TAG_subroutine_type ] [line 0, size 0, align 0, offset 0] [from ]
!613 = metadata !{metadata !9, metadata !614}
!614 = metadata !{i32 786447, i32 0, metadata !"", i32 0, i32 0, i64 64, i64 64, i64 0, i32 1088, metadata !615} ; [ DW_TAG_pointer_type ] [line 0, size 64, align 64, offset 0] [from C<8>]
!615 = metadata !{i32 786451, null, metadata !"C<8>", metadata !6, i32 5, i64 8, i64 8, i32 0, i32 0, null, metadata !616, i32 0, null, metadata !632} ; [ DW_TAG_structure_type ] [C<8>] [line 5, size 8, align 8, offset 0] [from ]
!616 = metadata !{metadata !617, metadata !622, metadata !627}
!617 = metadata !{i32 786478, i32 0, metadata !615, metadata !"f<16>", metadata !"f<16>", metadata !"_ZN1CILi8EE1fILi16EEEiv", metadata !6, i32 6, metadata !612, i1 false, i1 false, i32 0, i32 0, null, i32 256, i1 false, null, metadata !618, i32 0, metadata !620, i32 6} ; [ DW_TAG_subprogram ] [line 6] [f<16>]
!618 = metadata !{metadata !619}
!619 = metadata !{i32 786480, null, metadata !"M", metadata !9, i64 16, null, i32 0, i32 0} ; [ DW_TAG_template_value_parameter ]
!620 = metadata !{metadata !621}
!621 = metadata !{i32 786468}                     ; [ DW_TAG_base_type ] [line 0, size 0, align 0, offset 0]
!622 = metadata !{i32 786478, i32 0, metadata !615, metadata !"f<15>", metadata !"f<15>", metadata !"_ZN1CILi8EE1fILi15EEEiv", metadata !6, i32 6, metadata !612, i1 false, i1 false, i32 0, i32 0, null, i32 256, i1 false, null, metadata !623, i32 0, metadata !625, i32 6} ; [ DW_TAG_subprogram ] [line 6] [f<15>]
!623 = metadata !{metadata !624}
!624 = metadata !{i32 786480, null, metadata !"M", metadata !9, i64 15, null, i32 0, i32 0} ; [ DW_TAG_template_value_parameter ]
!625 = metadata !{metadata !626}
!626 = metadata !{i32 786468}                     ; [ DW_TAG_base_type ] [line 0, size 0, align 0, offset 0]
!627 = metadata !{i32 786478, i32 0, metadata !615, metadata !"~C", metadata !"~C", metadata !"", metadata !6, i32 5, metadata !628, i1 false, i1 false, i32 0, i32 0, null, i32 320, i1 false, null, null, i32 0, metadata !630, i32 5} ; [ DW_TAG_subprogram ] [line 5] [~C]
!628 = metadata !{i32 786453, i32 0, metadata !"", i32 0, i32 0, i64 0, i64 0, i64 0, i32 0, null, metadata !629, i32 0, i32 0} ; [ DW_TAG_subroutine_type ] [line 0, size 0, align 0, offset 0] [from ]
!629 = metadata !{null, metadata !614}
!630 = metadata !{metadata !631}
!631 = metadata !{i32 786468}                     ; [ DW_TAG_base_type ] [line 0, size 0, align 0, offset 0]
!632 = metadata !{metadata !633}
!633 = metadata !{i32 786480, null, metadata !"N", metadata !9, i64 8, null, i32 0, i32 0} ; [ DW_TAG_template_value_parameter ]
!634 = metadata !{i32 786478, i32 0, null, metadata !"f<15>", metadata !"f<15>", metadata !"_ZN1CILi8EE1fILi15EEEiv", metadata !6, i32 6, metadata !612, i1 false, i1 true, i32 0, i32 0, null, i32 256, i1 false, i32 (%struct.C.25*)* @_ZN1CILi8EE1fILi15EEEiv, metadata !623, metadata !622, metadata !1, i32 6} ; [ DW_TAG_subprogram ] [line 6] [def] [f<15>]
!635 = metadata !{i32 786478, i32 0, null, metadata !"f<14>", metadata !"f<14>", metadata !"_ZN1CILi7EE1fILi14EEEiv", metadata !6, i32 6, metadata !636, i1 false, i1 true, i32 0, i32 0, null, i32 256, i1 false, i32 (%struct.C.26*)* @_ZN1CILi7EE1fILi14EEEiv, metadata !642, metadata !641, metadata !1, i32 6} ; [ DW_TAG_subprogram ] [line 6] [def] [f<14>]
!636 = metadata !{i32 786453, i32 0, metadata !"", i32 0, i32 0, i64 0, i64 0, i64 0, i32 0, null, metadata !637, i32 0, i32 0} ; [ DW_TAG_subroutine_type ] [line 0, size 0, align 0, offset 0] [from ]
!637 = metadata !{metadata !9, metadata !638}
!638 = metadata !{i32 786447, i32 0, metadata !"", i32 0, i32 0, i64 64, i64 64, i64 0, i32 1088, metadata !639} ; [ DW_TAG_pointer_type ] [line 0, size 64, align 64, offset 0] [from C<7>]
!639 = metadata !{i32 786451, null, metadata !"C<7>", metadata !6, i32 5, i64 8, i64 8, i32 0, i32 0, null, metadata !640, i32 0, null, metadata !656} ; [ DW_TAG_structure_type ] [C<7>] [line 5, size 8, align 8, offset 0] [from ]
!640 = metadata !{metadata !641, metadata !646, metadata !651}
!641 = metadata !{i32 786478, i32 0, metadata !639, metadata !"f<14>", metadata !"f<14>", metadata !"_ZN1CILi7EE1fILi14EEEiv", metadata !6, i32 6, metadata !636, i1 false, i1 false, i32 0, i32 0, null, i32 256, i1 false, null, metadata !642, i32 0, metadata !644, i32 6} ; [ DW_TAG_subprogram ] [line 6] [f<14>]
!642 = metadata !{metadata !643}
!643 = metadata !{i32 786480, null, metadata !"M", metadata !9, i64 14, null, i32 0, i32 0} ; [ DW_TAG_template_value_parameter ]
!644 = metadata !{metadata !645}
!645 = metadata !{i32 786468}                     ; [ DW_TAG_base_type ] [line 0, size 0, align 0, offset 0]
!646 = metadata !{i32 786478, i32 0, metadata !639, metadata !"f<13>", metadata !"f<13>", metadata !"_ZN1CILi7EE1fILi13EEEiv", metadata !6, i32 6, metadata !636, i1 false, i1 false, i32 0, i32 0, null, i32 256, i1 false, null, metadata !647, i32 0, metadata !649, i32 6} ; [ DW_TAG_subprogram ] [line 6] [f<13>]
!647 = metadata !{metadata !648}
!648 = metadata !{i32 786480, null, metadata !"M", metadata !9, i64 13, null, i32 0, i32 0} ; [ DW_TAG_template_value_parameter ]
!649 = metadata !{metadata !650}
!650 = metadata !{i32 786468}                     ; [ DW_TAG_base_type ] [line 0, size 0, align 0, offset 0]
!651 = metadata !{i32 786478, i32 0, metadata !639, metadata !"~C", metadata !"~C", metadata !"", metadata !6, i32 5, metadata !652, i1 false, i1 false, i32 0, i32 0, null, i32 320, i1 false, null, null, i32 0, metadata !654, i32 5} ; [ DW_TAG_subprogram ] [line 5] [~C]
!652 = metadata !{i32 786453, i32 0, metadata !"", i32 0, i32 0, i64 0, i64 0, i64 0, i32 0, null, metadata !653, i32 0, i32 0} ; [ DW_TAG_subroutine_type ] [line 0, size 0, align 0, offset 0] [from ]
!653 = metadata !{null, metadata !638}
!654 = metadata !{metadata !655}
!655 = metadata !{i32 786468}                     ; [ DW_TAG_base_type ] [line 0, size 0, align 0, offset 0]
!656 = metadata !{metadata !657}
!657 = metadata !{i32 786480, null, metadata !"N", metadata !9, i64 7, null, i32 0, i32 0} ; [ DW_TAG_template_value_parameter ]
!658 = metadata !{i32 786478, i32 0, null, metadata !"f<13>", metadata !"f<13>", metadata !"_ZN1CILi7EE1fILi13EEEiv", metadata !6, i32 6, metadata !636, i1 false, i1 true, i32 0, i32 0, null, i32 256, i1 false, i32 (%struct.C.26*)* @_ZN1CILi7EE1fILi13EEEiv, metadata !647, metadata !646, metadata !1, i32 6} ; [ DW_TAG_subprogram ] [line 6] [def] [f<13>]
!659 = metadata !{i32 786478, i32 0, null, metadata !"f<12>", metadata !"f<12>", metadata !"_ZN1CILi6EE1fILi12EEEiv", metadata !6, i32 6, metadata !660, i1 false, i1 true, i32 0, i32 0, null, i32 256, i1 false, i32 (%struct.C.27*)* @_ZN1CILi6EE1fILi12EEEiv, metadata !666, metadata !665, metadata !1, i32 6} ; [ DW_TAG_subprogram ] [line 6] [def] [f<12>]
!660 = metadata !{i32 786453, i32 0, metadata !"", i32 0, i32 0, i64 0, i64 0, i64 0, i32 0, null, metadata !661, i32 0, i32 0} ; [ DW_TAG_subroutine_type ] [line 0, size 0, align 0, offset 0] [from ]
!661 = metadata !{metadata !9, metadata !662}
!662 = metadata !{i32 786447, i32 0, metadata !"", i32 0, i32 0, i64 64, i64 64, i64 0, i32 1088, metadata !663} ; [ DW_TAG_pointer_type ] [line 0, size 64, align 64, offset 0] [from C<6>]
!663 = metadata !{i32 786451, null, metadata !"C<6>", metadata !6, i32 5, i64 8, i64 8, i32 0, i32 0, null, metadata !664, i32 0, null, metadata !680} ; [ DW_TAG_structure_type ] [C<6>] [line 5, size 8, align 8, offset 0] [from ]
!664 = metadata !{metadata !665, metadata !670, metadata !675}
!665 = metadata !{i32 786478, i32 0, metadata !663, metadata !"f<12>", metadata !"f<12>", metadata !"_ZN1CILi6EE1fILi12EEEiv", metadata !6, i32 6, metadata !660, i1 false, i1 false, i32 0, i32 0, null, i32 256, i1 false, null, metadata !666, i32 0, metadata !668, i32 6} ; [ DW_TAG_subprogram ] [line 6] [f<12>]
!666 = metadata !{metadata !667}
!667 = metadata !{i32 786480, null, metadata !"M", metadata !9, i64 12, null, i32 0, i32 0} ; [ DW_TAG_template_value_parameter ]
!668 = metadata !{metadata !669}
!669 = metadata !{i32 786468}                     ; [ DW_TAG_base_type ] [line 0, size 0, align 0, offset 0]
!670 = metadata !{i32 786478, i32 0, metadata !663, metadata !"f<11>", metadata !"f<11>", metadata !"_ZN1CILi6EE1fILi11EEEiv", metadata !6, i32 6, metadata !660, i1 false, i1 false, i32 0, i32 0, null, i32 256, i1 false, null, metadata !671, i32 0, metadata !673, i32 6} ; [ DW_TAG_subprogram ] [line 6] [f<11>]
!671 = metadata !{metadata !672}
!672 = metadata !{i32 786480, null, metadata !"M", metadata !9, i64 11, null, i32 0, i32 0} ; [ DW_TAG_template_value_parameter ]
!673 = metadata !{metadata !674}
!674 = metadata !{i32 786468}                     ; [ DW_TAG_base_type ] [line 0, size 0, align 0, offset 0]
!675 = metadata !{i32 786478, i32 0, metadata !663, metadata !"~C", metadata !"~C", metadata !"", metadata !6, i32 5, metadata !676, i1 false, i1 false, i32 0, i32 0, null, i32 320, i1 false, null, null, i32 0, metadata !678, i32 5} ; [ DW_TAG_subprogram ] [line 5] [~C]
!676 = metadata !{i32 786453, i32 0, metadata !"", i32 0, i32 0, i64 0, i64 0, i64 0, i32 0, null, metadata !677, i32 0, i32 0} ; [ DW_TAG_subroutine_type ] [line 0, size 0, align 0, offset 0] [from ]
!677 = metadata !{null, metadata !662}
!678 = metadata !{metadata !679}
!679 = metadata !{i32 786468}                     ; [ DW_TAG_base_type ] [line 0, size 0, align 0, offset 0]
!680 = metadata !{metadata !681}
!681 = metadata !{i32 786480, null, metadata !"N", metadata !9, i64 6, null, i32 0, i32 0} ; [ DW_TAG_template_value_parameter ]
!682 = metadata !{i32 786478, i32 0, null, metadata !"f<11>", metadata !"f<11>", metadata !"_ZN1CILi6EE1fILi11EEEiv", metadata !6, i32 6, metadata !660, i1 false, i1 true, i32 0, i32 0, null, i32 256, i1 false, i32 (%struct.C.27*)* @_ZN1CILi6EE1fILi11EEEiv, metadata !671, metadata !670, metadata !1, i32 6} ; [ DW_TAG_subprogram ] [line 6] [def] [f<11>]
!683 = metadata !{i32 786478, i32 0, null, metadata !"f<10>", metadata !"f<10>", metadata !"_ZN1CILi5EE1fILi10EEEiv", metadata !6, i32 6, metadata !684, i1 false, i1 true, i32 0, i32 0, null, i32 256, i1 false, i32 (%struct.C.28*)* @_ZN1CILi5EE1fILi10EEEiv, metadata !690, metadata !689, metadata !1, i32 6} ; [ DW_TAG_subprogram ] [line 6] [def] [f<10>]
!684 = metadata !{i32 786453, i32 0, metadata !"", i32 0, i32 0, i64 0, i64 0, i64 0, i32 0, null, metadata !685, i32 0, i32 0} ; [ DW_TAG_subroutine_type ] [line 0, size 0, align 0, offset 0] [from ]
!685 = metadata !{metadata !9, metadata !686}
!686 = metadata !{i32 786447, i32 0, metadata !"", i32 0, i32 0, i64 64, i64 64, i64 0, i32 1088, metadata !687} ; [ DW_TAG_pointer_type ] [line 0, size 64, align 64, offset 0] [from C<5>]
!687 = metadata !{i32 786451, null, metadata !"C<5>", metadata !6, i32 5, i64 8, i64 8, i32 0, i32 0, null, metadata !688, i32 0, null, metadata !704} ; [ DW_TAG_structure_type ] [C<5>] [line 5, size 8, align 8, offset 0] [from ]
!688 = metadata !{metadata !689, metadata !694, metadata !699}
!689 = metadata !{i32 786478, i32 0, metadata !687, metadata !"f<10>", metadata !"f<10>", metadata !"_ZN1CILi5EE1fILi10EEEiv", metadata !6, i32 6, metadata !684, i1 false, i1 false, i32 0, i32 0, null, i32 256, i1 false, null, metadata !690, i32 0, metadata !692, i32 6} ; [ DW_TAG_subprogram ] [line 6] [f<10>]
!690 = metadata !{metadata !691}
!691 = metadata !{i32 786480, null, metadata !"M", metadata !9, i64 10, null, i32 0, i32 0} ; [ DW_TAG_template_value_parameter ]
!692 = metadata !{metadata !693}
!693 = metadata !{i32 786468}                     ; [ DW_TAG_base_type ] [line 0, size 0, align 0, offset 0]
!694 = metadata !{i32 786478, i32 0, metadata !687, metadata !"f<9>", metadata !"f<9>", metadata !"_ZN1CILi5EE1fILi9EEEiv", metadata !6, i32 6, metadata !684, i1 false, i1 false, i32 0, i32 0, null, i32 256, i1 false, null, metadata !695, i32 0, metadata !697, i32 6} ; [ DW_TAG_subprogram ] [line 6] [f<9>]
!695 = metadata !{metadata !696}
!696 = metadata !{i32 786480, null, metadata !"M", metadata !9, i64 9, null, i32 0, i32 0} ; [ DW_TAG_template_value_parameter ]
!697 = metadata !{metadata !698}
!698 = metadata !{i32 786468}                     ; [ DW_TAG_base_type ] [line 0, size 0, align 0, offset 0]
!699 = metadata !{i32 786478, i32 0, metadata !687, metadata !"~C", metadata !"~C", metadata !"", metadata !6, i32 5, metadata !700, i1 false, i1 false, i32 0, i32 0, null, i32 320, i1 false, null, null, i32 0, metadata !702, i32 5} ; [ DW_TAG_subprogram ] [line 5] [~C]
!700 = metadata !{i32 786453, i32 0, metadata !"", i32 0, i32 0, i64 0, i64 0, i64 0, i32 0, null, metadata !701, i32 0, i32 0} ; [ DW_TAG_subroutine_type ] [line 0, size 0, align 0, offset 0] [from ]
!701 = metadata !{null, metadata !686}
!702 = metadata !{metadata !703}
!703 = metadata !{i32 786468}                     ; [ DW_TAG_base_type ] [line 0, size 0, align 0, offset 0]
!704 = metadata !{metadata !705}
!705 = metadata !{i32 786480, null, metadata !"N", metadata !9, i64 5, null, i32 0, i32 0} ; [ DW_TAG_template_value_parameter ]
!706 = metadata !{i32 786478, i32 0, null, metadata !"f<9>", metadata !"f<9>", metadata !"_ZN1CILi5EE1fILi9EEEiv", metadata !6, i32 6, metadata !684, i1 false, i1 true, i32 0, i32 0, null, i32 256, i1 false, i32 (%struct.C.28*)* @_ZN1CILi5EE1fILi9EEEiv, metadata !695, metadata !694, metadata !1, i32 6} ; [ DW_TAG_subprogram ] [line 6] [def] [f<9>]
!707 = metadata !{i32 786478, i32 0, null, metadata !"f<8>", metadata !"f<8>", metadata !"_ZN1CILi4EE1fILi8EEEiv", metadata !6, i32 6, metadata !708, i1 false, i1 true, i32 0, i32 0, null, i32 256, i1 false, i32 (%struct.C.29*)* @_ZN1CILi4EE1fILi8EEEiv, metadata !714, metadata !713, metadata !1, i32 6} ; [ DW_TAG_subprogram ] [line 6] [def] [f<8>]
!708 = metadata !{i32 786453, i32 0, metadata !"", i32 0, i32 0, i64 0, i64 0, i64 0, i32 0, null, metadata !709, i32 0, i32 0} ; [ DW_TAG_subroutine_type ] [line 0, size 0, align 0, offset 0] [from ]
!709 = metadata !{metadata !9, metadata !710}
!710 = metadata !{i32 786447, i32 0, metadata !"", i32 0, i32 0, i64 64, i64 64, i64 0, i32 1088, metadata !711} ; [ DW_TAG_pointer_type ] [line 0, size 64, align 64, offset 0] [from C<4>]
!711 = metadata !{i32 786451, null, metadata !"C<4>", metadata !6, i32 5, i64 8, i64 8, i32 0, i32 0, null, metadata !712, i32 0, null, metadata !728} ; [ DW_TAG_structure_type ] [C<4>] [line 5, size 8, align 8, offset 0] [from ]
!712 = metadata !{metadata !713, metadata !718, metadata !723}
!713 = metadata !{i32 786478, i32 0, metadata !711, metadata !"f<8>", metadata !"f<8>", metadata !"_ZN1CILi4EE1fILi8EEEiv", metadata !6, i32 6, metadata !708, i1 false, i1 false, i32 0, i32 0, null, i32 256, i1 false, null, metadata !714, i32 0, metadata !716, i32 6} ; [ DW_TAG_subprogram ] [line 6] [f<8>]
!714 = metadata !{metadata !715}
!715 = metadata !{i32 786480, null, metadata !"M", metadata !9, i64 8, null, i32 0, i32 0} ; [ DW_TAG_template_value_parameter ]
!716 = metadata !{metadata !717}
!717 = metadata !{i32 786468}                     ; [ DW_TAG_base_type ] [line 0, size 0, align 0, offset 0]
!718 = metadata !{i32 786478, i32 0, metadata !711, metadata !"f<7>", metadata !"f<7>", metadata !"_ZN1CILi4EE1fILi7EEEiv", metadata !6, i32 6, metadata !708, i1 false, i1 false, i32 0, i32 0, null, i32 256, i1 false, null, metadata !719, i32 0, metadata !721, i32 6} ; [ DW_TAG_subprogram ] [line 6] [f<7>]
!719 = metadata !{metadata !720}
!720 = metadata !{i32 786480, null, metadata !"M", metadata !9, i64 7, null, i32 0, i32 0} ; [ DW_TAG_template_value_parameter ]
!721 = metadata !{metadata !722}
!722 = metadata !{i32 786468}                     ; [ DW_TAG_base_type ] [line 0, size 0, align 0, offset 0]
!723 = metadata !{i32 786478, i32 0, metadata !711, metadata !"~C", metadata !"~C", metadata !"", metadata !6, i32 5, metadata !724, i1 false, i1 false, i32 0, i32 0, null, i32 320, i1 false, null, null, i32 0, metadata !726, i32 5} ; [ DW_TAG_subprogram ] [line 5] [~C]
!724 = metadata !{i32 786453, i32 0, metadata !"", i32 0, i32 0, i64 0, i64 0, i64 0, i32 0, null, metadata !725, i32 0, i32 0} ; [ DW_TAG_subroutine_type ] [line 0, size 0, align 0, offset 0] [from ]
!725 = metadata !{null, metadata !710}
!726 = metadata !{metadata !727}
!727 = metadata !{i32 786468}                     ; [ DW_TAG_base_type ] [line 0, size 0, align 0, offset 0]
!728 = metadata !{metadata !729}
!729 = metadata !{i32 786480, null, metadata !"N", metadata !9, i64 4, null, i32 0, i32 0} ; [ DW_TAG_template_value_parameter ]
!730 = metadata !{i32 786478, i32 0, null, metadata !"f<7>", metadata !"f<7>", metadata !"_ZN1CILi4EE1fILi7EEEiv", metadata !6, i32 6, metadata !708, i1 false, i1 true, i32 0, i32 0, null, i32 256, i1 false, i32 (%struct.C.29*)* @_ZN1CILi4EE1fILi7EEEiv, metadata !719, metadata !718, metadata !1, i32 6} ; [ DW_TAG_subprogram ] [line 6] [def] [f<7>]
!731 = metadata !{i32 786478, i32 0, null, metadata !"f<6>", metadata !"f<6>", metadata !"_ZN1CILi3EE1fILi6EEEiv", metadata !6, i32 6, metadata !732, i1 false, i1 true, i32 0, i32 0, null, i32 256, i1 false, i32 (%struct.C.30*)* @_ZN1CILi3EE1fILi6EEEiv, metadata !738, metadata !737, metadata !1, i32 6} ; [ DW_TAG_subprogram ] [line 6] [def] [f<6>]
!732 = metadata !{i32 786453, i32 0, metadata !"", i32 0, i32 0, i64 0, i64 0, i64 0, i32 0, null, metadata !733, i32 0, i32 0} ; [ DW_TAG_subroutine_type ] [line 0, size 0, align 0, offset 0] [from ]
!733 = metadata !{metadata !9, metadata !734}
!734 = metadata !{i32 786447, i32 0, metadata !"", i32 0, i32 0, i64 64, i64 64, i64 0, i32 1088, metadata !735} ; [ DW_TAG_pointer_type ] [line 0, size 64, align 64, offset 0] [from C<3>]
!735 = metadata !{i32 786451, null, metadata !"C<3>", metadata !6, i32 5, i64 8, i64 8, i32 0, i32 0, null, metadata !736, i32 0, null, metadata !752} ; [ DW_TAG_structure_type ] [C<3>] [line 5, size 8, align 8, offset 0] [from ]
!736 = metadata !{metadata !737, metadata !742, metadata !747}
!737 = metadata !{i32 786478, i32 0, metadata !735, metadata !"f<6>", metadata !"f<6>", metadata !"_ZN1CILi3EE1fILi6EEEiv", metadata !6, i32 6, metadata !732, i1 false, i1 false, i32 0, i32 0, null, i32 256, i1 false, null, metadata !738, i32 0, metadata !740, i32 6} ; [ DW_TAG_subprogram ] [line 6] [f<6>]
!738 = metadata !{metadata !739}
!739 = metadata !{i32 786480, null, metadata !"M", metadata !9, i64 6, null, i32 0, i32 0} ; [ DW_TAG_template_value_parameter ]
!740 = metadata !{metadata !741}
!741 = metadata !{i32 786468}                     ; [ DW_TAG_base_type ] [line 0, size 0, align 0, offset 0]
!742 = metadata !{i32 786478, i32 0, metadata !735, metadata !"f<5>", metadata !"f<5>", metadata !"_ZN1CILi3EE1fILi5EEEiv", metadata !6, i32 6, metadata !732, i1 false, i1 false, i32 0, i32 0, null, i32 256, i1 false, null, metadata !743, i32 0, metadata !745, i32 6} ; [ DW_TAG_subprogram ] [line 6] [f<5>]
!743 = metadata !{metadata !744}
!744 = metadata !{i32 786480, null, metadata !"M", metadata !9, i64 5, null, i32 0, i32 0} ; [ DW_TAG_template_value_parameter ]
!745 = metadata !{metadata !746}
!746 = metadata !{i32 786468}                     ; [ DW_TAG_base_type ] [line 0, size 0, align 0, offset 0]
!747 = metadata !{i32 786478, i32 0, metadata !735, metadata !"~C", metadata !"~C", metadata !"", metadata !6, i32 5, metadata !748, i1 false, i1 false, i32 0, i32 0, null, i32 320, i1 false, null, null, i32 0, metadata !750, i32 5} ; [ DW_TAG_subprogram ] [line 5] [~C]
!748 = metadata !{i32 786453, i32 0, metadata !"", i32 0, i32 0, i64 0, i64 0, i64 0, i32 0, null, metadata !749, i32 0, i32 0} ; [ DW_TAG_subroutine_type ] [line 0, size 0, align 0, offset 0] [from ]
!749 = metadata !{null, metadata !734}
!750 = metadata !{metadata !751}
!751 = metadata !{i32 786468}                     ; [ DW_TAG_base_type ] [line 0, size 0, align 0, offset 0]
!752 = metadata !{metadata !753}
!753 = metadata !{i32 786480, null, metadata !"N", metadata !9, i64 3, null, i32 0, i32 0} ; [ DW_TAG_template_value_parameter ]
!754 = metadata !{i32 786478, i32 0, null, metadata !"f<5>", metadata !"f<5>", metadata !"_ZN1CILi3EE1fILi5EEEiv", metadata !6, i32 6, metadata !732, i1 false, i1 true, i32 0, i32 0, null, i32 256, i1 false, i32 (%struct.C.30*)* @_ZN1CILi3EE1fILi5EEEiv, metadata !743, metadata !742, metadata !1, i32 6} ; [ DW_TAG_subprogram ] [line 6] [def] [f<5>]
!755 = metadata !{i32 786478, i32 0, null, metadata !"f<4>", metadata !"f<4>", metadata !"_ZN1CILi2EE1fILi4EEEiv", metadata !6, i32 6, metadata !756, i1 false, i1 true, i32 0, i32 0, null, i32 256, i1 false, i32 (%struct.C.31*)* @_ZN1CILi2EE1fILi4EEEiv, metadata !762, metadata !761, metadata !1, i32 6} ; [ DW_TAG_subprogram ] [line 6] [def] [f<4>]
!756 = metadata !{i32 786453, i32 0, metadata !"", i32 0, i32 0, i64 0, i64 0, i64 0, i32 0, null, metadata !757, i32 0, i32 0} ; [ DW_TAG_subroutine_type ] [line 0, size 0, align 0, offset 0] [from ]
!757 = metadata !{metadata !9, metadata !758}
!758 = metadata !{i32 786447, i32 0, metadata !"", i32 0, i32 0, i64 64, i64 64, i64 0, i32 1088, metadata !759} ; [ DW_TAG_pointer_type ] [line 0, size 64, align 64, offset 0] [from C<2>]
!759 = metadata !{i32 786451, null, metadata !"C<2>", metadata !6, i32 5, i64 8, i64 8, i32 0, i32 0, null, metadata !760, i32 0, null, metadata !776} ; [ DW_TAG_structure_type ] [C<2>] [line 5, size 8, align 8, offset 0] [from ]
!760 = metadata !{metadata !761, metadata !766, metadata !771}
!761 = metadata !{i32 786478, i32 0, metadata !759, metadata !"f<4>", metadata !"f<4>", metadata !"_ZN1CILi2EE1fILi4EEEiv", metadata !6, i32 6, metadata !756, i1 false, i1 false, i32 0, i32 0, null, i32 256, i1 false, null, metadata !762, i32 0, metadata !764, i32 6} ; [ DW_TAG_subprogram ] [line 6] [f<4>]
!762 = metadata !{metadata !763}
!763 = metadata !{i32 786480, null, metadata !"M", metadata !9, i64 4, null, i32 0, i32 0} ; [ DW_TAG_template_value_parameter ]
!764 = metadata !{metadata !765}
!765 = metadata !{i32 786468}                     ; [ DW_TAG_base_type ] [line 0, size 0, align 0, offset 0]
!766 = metadata !{i32 786478, i32 0, metadata !759, metadata !"f<3>", metadata !"f<3>", metadata !"_ZN1CILi2EE1fILi3EEEiv", metadata !6, i32 6, metadata !756, i1 false, i1 false, i32 0, i32 0, null, i32 256, i1 false, null, metadata !767, i32 0, metadata !769, i32 6} ; [ DW_TAG_subprogram ] [line 6] [f<3>]
!767 = metadata !{metadata !768}
!768 = metadata !{i32 786480, null, metadata !"M", metadata !9, i64 3, null, i32 0, i32 0} ; [ DW_TAG_template_value_parameter ]
!769 = metadata !{metadata !770}
!770 = metadata !{i32 786468}                     ; [ DW_TAG_base_type ] [line 0, size 0, align 0, offset 0]
!771 = metadata !{i32 786478, i32 0, metadata !759, metadata !"~C", metadata !"~C", metadata !"", metadata !6, i32 5, metadata !772, i1 false, i1 false, i32 0, i32 0, null, i32 320, i1 false, null, null, i32 0, metadata !774, i32 5} ; [ DW_TAG_subprogram ] [line 5] [~C]
!772 = metadata !{i32 786453, i32 0, metadata !"", i32 0, i32 0, i64 0, i64 0, i64 0, i32 0, null, metadata !773, i32 0, i32 0} ; [ DW_TAG_subroutine_type ] [line 0, size 0, align 0, offset 0] [from ]
!773 = metadata !{null, metadata !758}
!774 = metadata !{metadata !775}
!775 = metadata !{i32 786468}                     ; [ DW_TAG_base_type ] [line 0, size 0, align 0, offset 0]
!776 = metadata !{metadata !777}
!777 = metadata !{i32 786480, null, metadata !"N", metadata !9, i64 2, null, i32 0, i32 0} ; [ DW_TAG_template_value_parameter ]
!778 = metadata !{i32 786478, i32 0, null, metadata !"f<3>", metadata !"f<3>", metadata !"_ZN1CILi2EE1fILi3EEEiv", metadata !6, i32 6, metadata !756, i1 false, i1 true, i32 0, i32 0, null, i32 256, i1 false, i32 (%struct.C.31*)* @_ZN1CILi2EE1fILi3EEEiv, metadata !767, metadata !766, metadata !1, i32 6} ; [ DW_TAG_subprogram ] [line 6] [def] [f<3>]
!779 = metadata !{i32 786478, i32 0, null, metadata !"f<2>", metadata !"f<2>", metadata !"_ZN1CILi1EE1fILi2EEEiv", metadata !6, i32 6, metadata !24, i1 false, i1 true, i32 0, i32 0, null, i32 256, i1 false, i32 (%struct.C.0*)* @_ZN1CILi1EE1fILi2EEEiv, metadata !780, null, metadata !1, i32 6} ; [ DW_TAG_subprogram ] [line 6] [def] [f<2>]
!780 = metadata !{metadata !781}
!781 = metadata !{i32 786480, null, metadata !"M", metadata !9, i64 2, null, i32 0, i32 0} ; [ DW_TAG_template_value_parameter ]
!782 = metadata !{i32 786478, i32 0, metadata !783, metadata !"_GLOBAL__I_a", metadata !"_GLOBAL__I_a", metadata !"", metadata !783, i32 9, metadata !784, i1 true, i1 true, i32 0, i32 0, null, i32 64, i1 false, void ()* @_GLOBAL__I_a, null, null, metadata !1, i32 9} ; [ DW_TAG_subprogram ] [line 9] [local] [def] [_GLOBAL__I_a]
!783 = metadata !{i32 786473, metadata !"/home/jazouani/llvm/llvm-3.2/tools/clang/test/CodeGenCXX/<unknown>", metadata !"/home/jazouani/llvm/build/tools/clang/test/CodeGenCXX", null} ; [ DW_TAG_file_type ]
!784 = metadata !{i32 786453, i32 0, metadata !"", i32 0, i32 0, i64 0, i64 0, i64 0, i32 0, null, metadata !2, i32 0, i32 0} ; [ DW_TAG_subroutine_type ] [line 0, size 0, align 0, offset 0] [from ]
!785 = metadata !{metadata !786}
!786 = metadata !{metadata !787}
!787 = metadata !{i32 786484, i32 0, null, metadata !"x", metadata !"x", metadata !"", metadata !6, i32 16, metadata !9, i32 0, i32 1, i32* @x} ; [ DW_TAG_variable ] [x] [line 16] [def]
!788 = metadata !{i32 786689, metadata !5, metadata !"this", metadata !6, i32 16777227, metadata !789, i32 1088, i32 0} ; [ DW_TAG_arg_variable ] [this] [line 11]
!789 = metadata !{i32 786447, null, metadata !"", null, i32 0, i64 64, i64 64, i64 0, i32 0, metadata !11} ; [ DW_TAG_pointer_type ] [line 0, size 64, align 64, offset 0] [from C<0>]
!790 = metadata !{i32 11, i32 0, metadata !5, null}
!791 = metadata !{i32 11, i32 0, metadata !792, null}
!792 = metadata !{i32 786443, metadata !5, i32 11, i32 0, metadata !6, i32 0} ; [ DW_TAG_lexical_block ] [/home/jazouani/llvm/build/tools/clang/test/CodeGenCXX//home/jazouani/llvm/llvm-3.2/tools/clang/test/CodeGenCXX/debug-info-determinism.cpp]
!793 = metadata !{i32 786689, metadata !20, metadata !"this", metadata !6, i32 16777228, metadata !789, i32 1088, i32 0} ; [ DW_TAG_arg_variable ] [this] [line 12]
!794 = metadata !{i32 12, i32 0, metadata !20, null}
!795 = metadata !{i32 12, i32 0, metadata !796, null}
!796 = metadata !{i32 786443, metadata !20, i32 12, i32 0, metadata !6, i32 1} ; [ DW_TAG_lexical_block ] [/home/jazouani/llvm/build/tools/clang/test/CodeGenCXX//home/jazouani/llvm/llvm-3.2/tools/clang/test/CodeGenCXX/debug-info-determinism.cpp]
!797 = metadata !{i32 786689, metadata !23, metadata !"this", metadata !6, i32 16777229, metadata !798, i32 1088, i32 0} ; [ DW_TAG_arg_variable ] [this] [line 13]
!798 = metadata !{i32 786447, null, metadata !"", null, i32 0, i64 64, i64 64, i64 0, i32 0, metadata !27} ; [ DW_TAG_pointer_type ] [line 0, size 64, align 64, offset 0] [from C<1>]
!799 = metadata !{i32 13, i32 0, metadata !23, null}
!800 = metadata !{i32 13, i32 0, metadata !801, null}
!801 = metadata !{i32 786443, metadata !23, i32 13, i32 0, metadata !6, i32 2} ; [ DW_TAG_lexical_block ] [/home/jazouani/llvm/build/tools/clang/test/CodeGenCXX//home/jazouani/llvm/llvm-3.2/tools/clang/test/CodeGenCXX/debug-info-determinism.cpp]
!802 = metadata !{i32 786689, metadata !34, metadata !"this", metadata !6, i32 16777230, metadata !798, i32 1088, i32 0} ; [ DW_TAG_arg_variable ] [this] [line 14]
!803 = metadata !{i32 14, i32 0, metadata !34, null}
!804 = metadata !{i32 14, i32 0, metadata !805, null}
!805 = metadata !{i32 786443, metadata !34, i32 14, i32 0, metadata !6, i32 3} ; [ DW_TAG_lexical_block ] [/home/jazouani/llvm/build/tools/clang/test/CodeGenCXX//home/jazouani/llvm/llvm-3.2/tools/clang/test/CodeGenCXX/debug-info-determinism.cpp]
!806 = metadata !{i32 16, i32 0, metadata !35, null}
!807 = metadata !{i32 786689, metadata !38, metadata !"this", metadata !6, i32 16777222, metadata !789, i32 1088, i32 0} ; [ DW_TAG_arg_variable ] [this] [line 6]
!808 = metadata !{i32 6, i32 0, metadata !38, null}
!809 = metadata !{i32 786688, metadata !810, metadata !"arr", metadata !6, i32 7, metadata !811, i32 0, i32 0} ; [ DW_TAG_auto_variable ] [arr] [line 7]
!810 = metadata !{i32 786443, metadata !38, i32 6, i32 0, metadata !6, i32 4} ; [ DW_TAG_lexical_block ] [/home/jazouani/llvm/build/tools/clang/test/CodeGenCXX//home/jazouani/llvm/llvm-3.2/tools/clang/test/CodeGenCXX/debug-info-determinism.cpp]
!811 = metadata !{i32 786433, null, metadata !"", null, i32 0, i64 2048, i64 32, i32 0, i32 0, metadata !9, metadata !812, i32 0, i32 0} ; [ DW_TAG_array_type ] [line 0, size 2048, align 32, offset 0] [from int]
!812 = metadata !{metadata !813}
!813 = metadata !{i32 786465, i64 0, i64 63}      ; [ DW_TAG_subrange_type ] [0, 63]
!814 = metadata !{i32 7, i32 0, metadata !810, null}
!815 = metadata !{i32 8, i32 0, metadata !810, null}
!816 = metadata !{i32 786689, metadata !41, metadata !"this", metadata !6, i32 16777222, metadata !817, i32 1088, i32 0} ; [ DW_TAG_arg_variable ] [this] [line 6]
!817 = metadata !{i32 786447, null, metadata !"", null, i32 0, i64 64, i64 64, i64 0, i32 0, metadata !45} ; [ DW_TAG_pointer_type ] [line 0, size 64, align 64, offset 0] [from C<32>]
!818 = metadata !{i32 6, i32 0, metadata !41, null}
!819 = metadata !{i32 786688, metadata !820, metadata !"arr", metadata !6, i32 7, metadata !821, i32 0, i32 0} ; [ DW_TAG_auto_variable ] [arr] [line 7]
!820 = metadata !{i32 786443, metadata !41, i32 6, i32 0, metadata !6, i32 5} ; [ DW_TAG_lexical_block ] [/home/jazouani/llvm/build/tools/clang/test/CodeGenCXX//home/jazouani/llvm/llvm-3.2/tools/clang/test/CodeGenCXX/debug-info-determinism.cpp]
!821 = metadata !{i32 786433, null, metadata !"", null, i32 0, i64 2016, i64 32, i32 0, i32 0, metadata !9, metadata !822, i32 0, i32 0} ; [ DW_TAG_array_type ] [line 0, size 2016, align 32, offset 0] [from int]
!822 = metadata !{metadata !823}
!823 = metadata !{i32 786465, i64 0, i64 62}      ; [ DW_TAG_subrange_type ] [0, 62]
!824 = metadata !{i32 7, i32 0, metadata !820, null}
!825 = metadata !{i32 8, i32 0, metadata !820, null}
!826 = metadata !{i32 786689, metadata !59, metadata !"this", metadata !6, i32 16777222, metadata !827, i32 1088, i32 0} ; [ DW_TAG_arg_variable ] [this] [line 6]
!827 = metadata !{i32 786447, null, metadata !"", null, i32 0, i64 64, i64 64, i64 0, i32 0, metadata !63} ; [ DW_TAG_pointer_type ] [line 0, size 64, align 64, offset 0] [from C<31>]
!828 = metadata !{i32 6, i32 0, metadata !59, null}
!829 = metadata !{i32 786688, metadata !830, metadata !"arr", metadata !6, i32 7, metadata !831, i32 0, i32 0} ; [ DW_TAG_auto_variable ] [arr] [line 7]
!830 = metadata !{i32 786443, metadata !59, i32 6, i32 0, metadata !6, i32 6} ; [ DW_TAG_lexical_block ] [/home/jazouani/llvm/build/tools/clang/test/CodeGenCXX//home/jazouani/llvm/llvm-3.2/tools/clang/test/CodeGenCXX/debug-info-determinism.cpp]
!831 = metadata !{i32 786433, null, metadata !"", null, i32 0, i64 1984, i64 32, i32 0, i32 0, metadata !9, metadata !832, i32 0, i32 0} ; [ DW_TAG_array_type ] [line 0, size 1984, align 32, offset 0] [from int]
!832 = metadata !{metadata !833}
!833 = metadata !{i32 786465, i64 0, i64 61}      ; [ DW_TAG_subrange_type ] [0, 61]
!834 = metadata !{i32 7, i32 0, metadata !830, null}
!835 = metadata !{i32 8, i32 0, metadata !830, null}
!836 = metadata !{i32 786689, metadata !82, metadata !"this", metadata !6, i32 16777222, metadata !827, i32 1088, i32 0} ; [ DW_TAG_arg_variable ] [this] [line 6]
!837 = metadata !{i32 6, i32 0, metadata !82, null}
!838 = metadata !{i32 786688, metadata !839, metadata !"arr", metadata !6, i32 7, metadata !840, i32 0, i32 0} ; [ DW_TAG_auto_variable ] [arr] [line 7]
!839 = metadata !{i32 786443, metadata !82, i32 6, i32 0, metadata !6, i32 7} ; [ DW_TAG_lexical_block ] [/home/jazouani/llvm/build/tools/clang/test/CodeGenCXX//home/jazouani/llvm/llvm-3.2/tools/clang/test/CodeGenCXX/debug-info-determinism.cpp]
!840 = metadata !{i32 786433, null, metadata !"", null, i32 0, i64 1952, i64 32, i32 0, i32 0, metadata !9, metadata !841, i32 0, i32 0} ; [ DW_TAG_array_type ] [line 0, size 1952, align 32, offset 0] [from int]
!841 = metadata !{metadata !842}
!842 = metadata !{i32 786465, i64 0, i64 60}      ; [ DW_TAG_subrange_type ] [0, 60]
!843 = metadata !{i32 7, i32 0, metadata !839, null}
!844 = metadata !{i32 8, i32 0, metadata !839, null}
!845 = metadata !{i32 786689, metadata !83, metadata !"this", metadata !6, i32 16777222, metadata !846, i32 1088, i32 0} ; [ DW_TAG_arg_variable ] [this] [line 6]
!846 = metadata !{i32 786447, null, metadata !"", null, i32 0, i64 64, i64 64, i64 0, i32 0, metadata !87} ; [ DW_TAG_pointer_type ] [line 0, size 64, align 64, offset 0] [from C<30>]
!847 = metadata !{i32 6, i32 0, metadata !83, null}
!848 = metadata !{i32 786688, metadata !849, metadata !"arr", metadata !6, i32 7, metadata !850, i32 0, i32 0} ; [ DW_TAG_auto_variable ] [arr] [line 7]
!849 = metadata !{i32 786443, metadata !83, i32 6, i32 0, metadata !6, i32 8} ; [ DW_TAG_lexical_block ] [/home/jazouani/llvm/build/tools/clang/test/CodeGenCXX//home/jazouani/llvm/llvm-3.2/tools/clang/test/CodeGenCXX/debug-info-determinism.cpp]
!850 = metadata !{i32 786433, null, metadata !"", null, i32 0, i64 1920, i64 32, i32 0, i32 0, metadata !9, metadata !851, i32 0, i32 0} ; [ DW_TAG_array_type ] [line 0, size 1920, align 32, offset 0] [from int]
!851 = metadata !{metadata !852}
!852 = metadata !{i32 786465, i64 0, i64 59}      ; [ DW_TAG_subrange_type ] [0, 59]
!853 = metadata !{i32 7, i32 0, metadata !849, null}
!854 = metadata !{i32 8, i32 0, metadata !849, null}
!855 = metadata !{i32 786689, metadata !106, metadata !"this", metadata !6, i32 16777222, metadata !846, i32 1088, i32 0} ; [ DW_TAG_arg_variable ] [this] [line 6]
!856 = metadata !{i32 6, i32 0, metadata !106, null}
!857 = metadata !{i32 786688, metadata !858, metadata !"arr", metadata !6, i32 7, metadata !859, i32 0, i32 0} ; [ DW_TAG_auto_variable ] [arr] [line 7]
!858 = metadata !{i32 786443, metadata !106, i32 6, i32 0, metadata !6, i32 9} ; [ DW_TAG_lexical_block ] [/home/jazouani/llvm/build/tools/clang/test/CodeGenCXX//home/jazouani/llvm/llvm-3.2/tools/clang/test/CodeGenCXX/debug-info-determinism.cpp]
!859 = metadata !{i32 786433, null, metadata !"", null, i32 0, i64 1888, i64 32, i32 0, i32 0, metadata !9, metadata !860, i32 0, i32 0} ; [ DW_TAG_array_type ] [line 0, size 1888, align 32, offset 0] [from int]
!860 = metadata !{metadata !861}
!861 = metadata !{i32 786465, i64 0, i64 58}      ; [ DW_TAG_subrange_type ] [0, 58]
!862 = metadata !{i32 7, i32 0, metadata !858, null}
!863 = metadata !{i32 8, i32 0, metadata !858, null}
!864 = metadata !{i32 786689, metadata !107, metadata !"this", metadata !6, i32 16777222, metadata !865, i32 1088, i32 0} ; [ DW_TAG_arg_variable ] [this] [line 6]
!865 = metadata !{i32 786447, null, metadata !"", null, i32 0, i64 64, i64 64, i64 0, i32 0, metadata !111} ; [ DW_TAG_pointer_type ] [line 0, size 64, align 64, offset 0] [from C<29>]
!866 = metadata !{i32 6, i32 0, metadata !107, null}
!867 = metadata !{i32 786688, metadata !868, metadata !"arr", metadata !6, i32 7, metadata !869, i32 0, i32 0} ; [ DW_TAG_auto_variable ] [arr] [line 7]
!868 = metadata !{i32 786443, metadata !107, i32 6, i32 0, metadata !6, i32 10} ; [ DW_TAG_lexical_block ] [/home/jazouani/llvm/build/tools/clang/test/CodeGenCXX//home/jazouani/llvm/llvm-3.2/tools/clang/test/CodeGenCXX/debug-info-determinism.cpp]
!869 = metadata !{i32 786433, null, metadata !"", null, i32 0, i64 1856, i64 32, i32 0, i32 0, metadata !9, metadata !870, i32 0, i32 0} ; [ DW_TAG_array_type ] [line 0, size 1856, align 32, offset 0] [from int]
!870 = metadata !{metadata !871}
!871 = metadata !{i32 786465, i64 0, i64 57}      ; [ DW_TAG_subrange_type ] [0, 57]
!872 = metadata !{i32 7, i32 0, metadata !868, null}
!873 = metadata !{i32 8, i32 0, metadata !868, null}
!874 = metadata !{i32 786689, metadata !130, metadata !"this", metadata !6, i32 16777222, metadata !865, i32 1088, i32 0} ; [ DW_TAG_arg_variable ] [this] [line 6]
!875 = metadata !{i32 6, i32 0, metadata !130, null}
!876 = metadata !{i32 786688, metadata !877, metadata !"arr", metadata !6, i32 7, metadata !878, i32 0, i32 0} ; [ DW_TAG_auto_variable ] [arr] [line 7]
!877 = metadata !{i32 786443, metadata !130, i32 6, i32 0, metadata !6, i32 11} ; [ DW_TAG_lexical_block ] [/home/jazouani/llvm/build/tools/clang/test/CodeGenCXX//home/jazouani/llvm/llvm-3.2/tools/clang/test/CodeGenCXX/debug-info-determinism.cpp]
!878 = metadata !{i32 786433, null, metadata !"", null, i32 0, i64 1824, i64 32, i32 0, i32 0, metadata !9, metadata !879, i32 0, i32 0} ; [ DW_TAG_array_type ] [line 0, size 1824, align 32, offset 0] [from int]
!879 = metadata !{metadata !880}
!880 = metadata !{i32 786465, i64 0, i64 56}      ; [ DW_TAG_subrange_type ] [0, 56]
!881 = metadata !{i32 7, i32 0, metadata !877, null}
!882 = metadata !{i32 8, i32 0, metadata !877, null}
!883 = metadata !{i32 786689, metadata !131, metadata !"this", metadata !6, i32 16777222, metadata !884, i32 1088, i32 0} ; [ DW_TAG_arg_variable ] [this] [line 6]
!884 = metadata !{i32 786447, null, metadata !"", null, i32 0, i64 64, i64 64, i64 0, i32 0, metadata !135} ; [ DW_TAG_pointer_type ] [line 0, size 64, align 64, offset 0] [from C<28>]
!885 = metadata !{i32 6, i32 0, metadata !131, null}
!886 = metadata !{i32 786688, metadata !887, metadata !"arr", metadata !6, i32 7, metadata !888, i32 0, i32 0} ; [ DW_TAG_auto_variable ] [arr] [line 7]
!887 = metadata !{i32 786443, metadata !131, i32 6, i32 0, metadata !6, i32 12} ; [ DW_TAG_lexical_block ] [/home/jazouani/llvm/build/tools/clang/test/CodeGenCXX//home/jazouani/llvm/llvm-3.2/tools/clang/test/CodeGenCXX/debug-info-determinism.cpp]
!888 = metadata !{i32 786433, null, metadata !"", null, i32 0, i64 1792, i64 32, i32 0, i32 0, metadata !9, metadata !889, i32 0, i32 0} ; [ DW_TAG_array_type ] [line 0, size 1792, align 32, offset 0] [from int]
!889 = metadata !{metadata !890}
!890 = metadata !{i32 786465, i64 0, i64 55}      ; [ DW_TAG_subrange_type ] [0, 55]
!891 = metadata !{i32 7, i32 0, metadata !887, null}
!892 = metadata !{i32 8, i32 0, metadata !887, null}
!893 = metadata !{i32 786689, metadata !154, metadata !"this", metadata !6, i32 16777222, metadata !884, i32 1088, i32 0} ; [ DW_TAG_arg_variable ] [this] [line 6]
!894 = metadata !{i32 6, i32 0, metadata !154, null}
!895 = metadata !{i32 786688, metadata !896, metadata !"arr", metadata !6, i32 7, metadata !897, i32 0, i32 0} ; [ DW_TAG_auto_variable ] [arr] [line 7]
!896 = metadata !{i32 786443, metadata !154, i32 6, i32 0, metadata !6, i32 13} ; [ DW_TAG_lexical_block ] [/home/jazouani/llvm/build/tools/clang/test/CodeGenCXX//home/jazouani/llvm/llvm-3.2/tools/clang/test/CodeGenCXX/debug-info-determinism.cpp]
!897 = metadata !{i32 786433, null, metadata !"", null, i32 0, i64 1760, i64 32, i32 0, i32 0, metadata !9, metadata !898, i32 0, i32 0} ; [ DW_TAG_array_type ] [line 0, size 1760, align 32, offset 0] [from int]
!898 = metadata !{metadata !899}
!899 = metadata !{i32 786465, i64 0, i64 54}      ; [ DW_TAG_subrange_type ] [0, 54]
!900 = metadata !{i32 7, i32 0, metadata !896, null}
!901 = metadata !{i32 8, i32 0, metadata !896, null}
!902 = metadata !{i32 786689, metadata !155, metadata !"this", metadata !6, i32 16777222, metadata !903, i32 1088, i32 0} ; [ DW_TAG_arg_variable ] [this] [line 6]
!903 = metadata !{i32 786447, null, metadata !"", null, i32 0, i64 64, i64 64, i64 0, i32 0, metadata !159} ; [ DW_TAG_pointer_type ] [line 0, size 64, align 64, offset 0] [from C<27>]
!904 = metadata !{i32 6, i32 0, metadata !155, null}
!905 = metadata !{i32 786688, metadata !906, metadata !"arr", metadata !6, i32 7, metadata !907, i32 0, i32 0} ; [ DW_TAG_auto_variable ] [arr] [line 7]
!906 = metadata !{i32 786443, metadata !155, i32 6, i32 0, metadata !6, i32 14} ; [ DW_TAG_lexical_block ] [/home/jazouani/llvm/build/tools/clang/test/CodeGenCXX//home/jazouani/llvm/llvm-3.2/tools/clang/test/CodeGenCXX/debug-info-determinism.cpp]
!907 = metadata !{i32 786433, null, metadata !"", null, i32 0, i64 1728, i64 32, i32 0, i32 0, metadata !9, metadata !908, i32 0, i32 0} ; [ DW_TAG_array_type ] [line 0, size 1728, align 32, offset 0] [from int]
!908 = metadata !{metadata !909}
!909 = metadata !{i32 786465, i64 0, i64 53}      ; [ DW_TAG_subrange_type ] [0, 53]
!910 = metadata !{i32 7, i32 0, metadata !906, null}
!911 = metadata !{i32 8, i32 0, metadata !906, null}
!912 = metadata !{i32 786689, metadata !178, metadata !"this", metadata !6, i32 16777222, metadata !903, i32 1088, i32 0} ; [ DW_TAG_arg_variable ] [this] [line 6]
!913 = metadata !{i32 6, i32 0, metadata !178, null}
!914 = metadata !{i32 786688, metadata !915, metadata !"arr", metadata !6, i32 7, metadata !916, i32 0, i32 0} ; [ DW_TAG_auto_variable ] [arr] [line 7]
!915 = metadata !{i32 786443, metadata !178, i32 6, i32 0, metadata !6, i32 15} ; [ DW_TAG_lexical_block ] [/home/jazouani/llvm/build/tools/clang/test/CodeGenCXX//home/jazouani/llvm/llvm-3.2/tools/clang/test/CodeGenCXX/debug-info-determinism.cpp]
!916 = metadata !{i32 786433, null, metadata !"", null, i32 0, i64 1696, i64 32, i32 0, i32 0, metadata !9, metadata !917, i32 0, i32 0} ; [ DW_TAG_array_type ] [line 0, size 1696, align 32, offset 0] [from int]
!917 = metadata !{metadata !918}
!918 = metadata !{i32 786465, i64 0, i64 52}      ; [ DW_TAG_subrange_type ] [0, 52]
!919 = metadata !{i32 7, i32 0, metadata !915, null}
!920 = metadata !{i32 8, i32 0, metadata !915, null}
!921 = metadata !{i32 786689, metadata !179, metadata !"this", metadata !6, i32 16777222, metadata !922, i32 1088, i32 0} ; [ DW_TAG_arg_variable ] [this] [line 6]
!922 = metadata !{i32 786447, null, metadata !"", null, i32 0, i64 64, i64 64, i64 0, i32 0, metadata !183} ; [ DW_TAG_pointer_type ] [line 0, size 64, align 64, offset 0] [from C<26>]
!923 = metadata !{i32 6, i32 0, metadata !179, null}
!924 = metadata !{i32 786688, metadata !925, metadata !"arr", metadata !6, i32 7, metadata !926, i32 0, i32 0} ; [ DW_TAG_auto_variable ] [arr] [line 7]
!925 = metadata !{i32 786443, metadata !179, i32 6, i32 0, metadata !6, i32 16} ; [ DW_TAG_lexical_block ] [/home/jazouani/llvm/build/tools/clang/test/CodeGenCXX//home/jazouani/llvm/llvm-3.2/tools/clang/test/CodeGenCXX/debug-info-determinism.cpp]
!926 = metadata !{i32 786433, null, metadata !"", null, i32 0, i64 1664, i64 32, i32 0, i32 0, metadata !9, metadata !927, i32 0, i32 0} ; [ DW_TAG_array_type ] [line 0, size 1664, align 32, offset 0] [from int]
!927 = metadata !{metadata !928}
!928 = metadata !{i32 786465, i64 0, i64 51}      ; [ DW_TAG_subrange_type ] [0, 51]
!929 = metadata !{i32 7, i32 0, metadata !925, null}
!930 = metadata !{i32 8, i32 0, metadata !925, null}
!931 = metadata !{i32 786689, metadata !202, metadata !"this", metadata !6, i32 16777222, metadata !922, i32 1088, i32 0} ; [ DW_TAG_arg_variable ] [this] [line 6]
!932 = metadata !{i32 6, i32 0, metadata !202, null}
!933 = metadata !{i32 786688, metadata !934, metadata !"arr", metadata !6, i32 7, metadata !935, i32 0, i32 0} ; [ DW_TAG_auto_variable ] [arr] [line 7]
!934 = metadata !{i32 786443, metadata !202, i32 6, i32 0, metadata !6, i32 17} ; [ DW_TAG_lexical_block ] [/home/jazouani/llvm/build/tools/clang/test/CodeGenCXX//home/jazouani/llvm/llvm-3.2/tools/clang/test/CodeGenCXX/debug-info-determinism.cpp]
!935 = metadata !{i32 786433, null, metadata !"", null, i32 0, i64 1632, i64 32, i32 0, i32 0, metadata !9, metadata !936, i32 0, i32 0} ; [ DW_TAG_array_type ] [line 0, size 1632, align 32, offset 0] [from int]
!936 = metadata !{metadata !937}
!937 = metadata !{i32 786465, i64 0, i64 50}      ; [ DW_TAG_subrange_type ] [0, 50]
!938 = metadata !{i32 7, i32 0, metadata !934, null}
!939 = metadata !{i32 8, i32 0, metadata !934, null}
!940 = metadata !{i32 786689, metadata !203, metadata !"this", metadata !6, i32 16777222, metadata !941, i32 1088, i32 0} ; [ DW_TAG_arg_variable ] [this] [line 6]
!941 = metadata !{i32 786447, null, metadata !"", null, i32 0, i64 64, i64 64, i64 0, i32 0, metadata !207} ; [ DW_TAG_pointer_type ] [line 0, size 64, align 64, offset 0] [from C<25>]
!942 = metadata !{i32 6, i32 0, metadata !203, null}
!943 = metadata !{i32 786688, metadata !944, metadata !"arr", metadata !6, i32 7, metadata !945, i32 0, i32 0} ; [ DW_TAG_auto_variable ] [arr] [line 7]
!944 = metadata !{i32 786443, metadata !203, i32 6, i32 0, metadata !6, i32 18} ; [ DW_TAG_lexical_block ] [/home/jazouani/llvm/build/tools/clang/test/CodeGenCXX//home/jazouani/llvm/llvm-3.2/tools/clang/test/CodeGenCXX/debug-info-determinism.cpp]
!945 = metadata !{i32 786433, null, metadata !"", null, i32 0, i64 1600, i64 32, i32 0, i32 0, metadata !9, metadata !946, i32 0, i32 0} ; [ DW_TAG_array_type ] [line 0, size 1600, align 32, offset 0] [from int]
!946 = metadata !{metadata !947}
!947 = metadata !{i32 786465, i64 0, i64 49}      ; [ DW_TAG_subrange_type ] [0, 49]
!948 = metadata !{i32 7, i32 0, metadata !944, null}
!949 = metadata !{i32 8, i32 0, metadata !944, null}
!950 = metadata !{i32 786689, metadata !226, metadata !"this", metadata !6, i32 16777222, metadata !941, i32 1088, i32 0} ; [ DW_TAG_arg_variable ] [this] [line 6]
!951 = metadata !{i32 6, i32 0, metadata !226, null}
!952 = metadata !{i32 786688, metadata !953, metadata !"arr", metadata !6, i32 7, metadata !954, i32 0, i32 0} ; [ DW_TAG_auto_variable ] [arr] [line 7]
!953 = metadata !{i32 786443, metadata !226, i32 6, i32 0, metadata !6, i32 19} ; [ DW_TAG_lexical_block ] [/home/jazouani/llvm/build/tools/clang/test/CodeGenCXX//home/jazouani/llvm/llvm-3.2/tools/clang/test/CodeGenCXX/debug-info-determinism.cpp]
!954 = metadata !{i32 786433, null, metadata !"", null, i32 0, i64 1568, i64 32, i32 0, i32 0, metadata !9, metadata !955, i32 0, i32 0} ; [ DW_TAG_array_type ] [line 0, size 1568, align 32, offset 0] [from int]
!955 = metadata !{metadata !956}
!956 = metadata !{i32 786465, i64 0, i64 48}      ; [ DW_TAG_subrange_type ] [0, 48]
!957 = metadata !{i32 7, i32 0, metadata !953, null}
!958 = metadata !{i32 8, i32 0, metadata !953, null}
!959 = metadata !{i32 786689, metadata !227, metadata !"this", metadata !6, i32 16777222, metadata !960, i32 1088, i32 0} ; [ DW_TAG_arg_variable ] [this] [line 6]
!960 = metadata !{i32 786447, null, metadata !"", null, i32 0, i64 64, i64 64, i64 0, i32 0, metadata !231} ; [ DW_TAG_pointer_type ] [line 0, size 64, align 64, offset 0] [from C<24>]
!961 = metadata !{i32 6, i32 0, metadata !227, null}
!962 = metadata !{i32 786688, metadata !963, metadata !"arr", metadata !6, i32 7, metadata !964, i32 0, i32 0} ; [ DW_TAG_auto_variable ] [arr] [line 7]
!963 = metadata !{i32 786443, metadata !227, i32 6, i32 0, metadata !6, i32 20} ; [ DW_TAG_lexical_block ] [/home/jazouani/llvm/build/tools/clang/test/CodeGenCXX//home/jazouani/llvm/llvm-3.2/tools/clang/test/CodeGenCXX/debug-info-determinism.cpp]
!964 = metadata !{i32 786433, null, metadata !"", null, i32 0, i64 1536, i64 32, i32 0, i32 0, metadata !9, metadata !965, i32 0, i32 0} ; [ DW_TAG_array_type ] [line 0, size 1536, align 32, offset 0] [from int]
!965 = metadata !{metadata !966}
!966 = metadata !{i32 786465, i64 0, i64 47}      ; [ DW_TAG_subrange_type ] [0, 47]
!967 = metadata !{i32 7, i32 0, metadata !963, null}
!968 = metadata !{i32 8, i32 0, metadata !963, null}
!969 = metadata !{i32 786689, metadata !250, metadata !"this", metadata !6, i32 16777222, metadata !960, i32 1088, i32 0} ; [ DW_TAG_arg_variable ] [this] [line 6]
!970 = metadata !{i32 6, i32 0, metadata !250, null}
!971 = metadata !{i32 786688, metadata !972, metadata !"arr", metadata !6, i32 7, metadata !973, i32 0, i32 0} ; [ DW_TAG_auto_variable ] [arr] [line 7]
!972 = metadata !{i32 786443, metadata !250, i32 6, i32 0, metadata !6, i32 21} ; [ DW_TAG_lexical_block ] [/home/jazouani/llvm/build/tools/clang/test/CodeGenCXX//home/jazouani/llvm/llvm-3.2/tools/clang/test/CodeGenCXX/debug-info-determinism.cpp]
!973 = metadata !{i32 786433, null, metadata !"", null, i32 0, i64 1504, i64 32, i32 0, i32 0, metadata !9, metadata !974, i32 0, i32 0} ; [ DW_TAG_array_type ] [line 0, size 1504, align 32, offset 0] [from int]
!974 = metadata !{metadata !975}
!975 = metadata !{i32 786465, i64 0, i64 46}      ; [ DW_TAG_subrange_type ] [0, 46]
!976 = metadata !{i32 7, i32 0, metadata !972, null}
!977 = metadata !{i32 8, i32 0, metadata !972, null}
!978 = metadata !{i32 786689, metadata !251, metadata !"this", metadata !6, i32 16777222, metadata !979, i32 1088, i32 0} ; [ DW_TAG_arg_variable ] [this] [line 6]
!979 = metadata !{i32 786447, null, metadata !"", null, i32 0, i64 64, i64 64, i64 0, i32 0, metadata !255} ; [ DW_TAG_pointer_type ] [line 0, size 64, align 64, offset 0] [from C<23>]
!980 = metadata !{i32 6, i32 0, metadata !251, null}
!981 = metadata !{i32 786688, metadata !982, metadata !"arr", metadata !6, i32 7, metadata !983, i32 0, i32 0} ; [ DW_TAG_auto_variable ] [arr] [line 7]
!982 = metadata !{i32 786443, metadata !251, i32 6, i32 0, metadata !6, i32 22} ; [ DW_TAG_lexical_block ] [/home/jazouani/llvm/build/tools/clang/test/CodeGenCXX//home/jazouani/llvm/llvm-3.2/tools/clang/test/CodeGenCXX/debug-info-determinism.cpp]
!983 = metadata !{i32 786433, null, metadata !"", null, i32 0, i64 1472, i64 32, i32 0, i32 0, metadata !9, metadata !984, i32 0, i32 0} ; [ DW_TAG_array_type ] [line 0, size 1472, align 32, offset 0] [from int]
!984 = metadata !{metadata !985}
!985 = metadata !{i32 786465, i64 0, i64 45}      ; [ DW_TAG_subrange_type ] [0, 45]
!986 = metadata !{i32 7, i32 0, metadata !982, null}
!987 = metadata !{i32 8, i32 0, metadata !982, null}
!988 = metadata !{i32 786689, metadata !274, metadata !"this", metadata !6, i32 16777222, metadata !979, i32 1088, i32 0} ; [ DW_TAG_arg_variable ] [this] [line 6]
!989 = metadata !{i32 6, i32 0, metadata !274, null}
!990 = metadata !{i32 786688, metadata !991, metadata !"arr", metadata !6, i32 7, metadata !992, i32 0, i32 0} ; [ DW_TAG_auto_variable ] [arr] [line 7]
!991 = metadata !{i32 786443, metadata !274, i32 6, i32 0, metadata !6, i32 23} ; [ DW_TAG_lexical_block ] [/home/jazouani/llvm/build/tools/clang/test/CodeGenCXX//home/jazouani/llvm/llvm-3.2/tools/clang/test/CodeGenCXX/debug-info-determinism.cpp]
!992 = metadata !{i32 786433, null, metadata !"", null, i32 0, i64 1440, i64 32, i32 0, i32 0, metadata !9, metadata !993, i32 0, i32 0} ; [ DW_TAG_array_type ] [line 0, size 1440, align 32, offset 0] [from int]
!993 = metadata !{metadata !994}
!994 = metadata !{i32 786465, i64 0, i64 44}      ; [ DW_TAG_subrange_type ] [0, 44]
!995 = metadata !{i32 7, i32 0, metadata !991, null}
!996 = metadata !{i32 8, i32 0, metadata !991, null}
!997 = metadata !{i32 786689, metadata !275, metadata !"this", metadata !6, i32 16777222, metadata !998, i32 1088, i32 0} ; [ DW_TAG_arg_variable ] [this] [line 6]
!998 = metadata !{i32 786447, null, metadata !"", null, i32 0, i64 64, i64 64, i64 0, i32 0, metadata !279} ; [ DW_TAG_pointer_type ] [line 0, size 64, align 64, offset 0] [from C<22>]
!999 = metadata !{i32 6, i32 0, metadata !275, null}
!1000 = metadata !{i32 786688, metadata !1001, metadata !"arr", metadata !6, i32 7, metadata !1002, i32 0, i32 0} ; [ DW_TAG_auto_variable ] [arr] [line 7]
!1001 = metadata !{i32 786443, metadata !275, i32 6, i32 0, metadata !6, i32 24} ; [ DW_TAG_lexical_block ] [/home/jazouani/llvm/build/tools/clang/test/CodeGenCXX//home/jazouani/llvm/llvm-3.2/tools/clang/test/CodeGenCXX/debug-info-determinism.cpp]
!1002 = metadata !{i32 786433, null, metadata !"", null, i32 0, i64 1408, i64 32, i32 0, i32 0, metadata !9, metadata !1003, i32 0, i32 0} ; [ DW_TAG_array_type ] [line 0, size 1408, align 32, offset 0] [from int]
!1003 = metadata !{metadata !1004}
!1004 = metadata !{i32 786465, i64 0, i64 43}     ; [ DW_TAG_subrange_type ] [0, 43]
!1005 = metadata !{i32 7, i32 0, metadata !1001, null}
!1006 = metadata !{i32 8, i32 0, metadata !1001, null}
!1007 = metadata !{i32 786689, metadata !298, metadata !"this", metadata !6, i32 16777222, metadata !998, i32 1088, i32 0} ; [ DW_TAG_arg_variable ] [this] [line 6]
!1008 = metadata !{i32 6, i32 0, metadata !298, null}
!1009 = metadata !{i32 786688, metadata !1010, metadata !"arr", metadata !6, i32 7, metadata !1011, i32 0, i32 0} ; [ DW_TAG_auto_variable ] [arr] [line 7]
!1010 = metadata !{i32 786443, metadata !298, i32 6, i32 0, metadata !6, i32 25} ; [ DW_TAG_lexical_block ] [/home/jazouani/llvm/build/tools/clang/test/CodeGenCXX//home/jazouani/llvm/llvm-3.2/tools/clang/test/CodeGenCXX/debug-info-determinism.cpp]
!1011 = metadata !{i32 786433, null, metadata !"", null, i32 0, i64 1376, i64 32, i32 0, i32 0, metadata !9, metadata !1012, i32 0, i32 0} ; [ DW_TAG_array_type ] [line 0, size 1376, align 32, offset 0] [from int]
!1012 = metadata !{metadata !1013}
!1013 = metadata !{i32 786465, i64 0, i64 42}     ; [ DW_TAG_subrange_type ] [0, 42]
!1014 = metadata !{i32 7, i32 0, metadata !1010, null}
!1015 = metadata !{i32 8, i32 0, metadata !1010, null}
!1016 = metadata !{i32 786689, metadata !299, metadata !"this", metadata !6, i32 16777222, metadata !1017, i32 1088, i32 0} ; [ DW_TAG_arg_variable ] [this] [line 6]
!1017 = metadata !{i32 786447, null, metadata !"", null, i32 0, i64 64, i64 64, i64 0, i32 0, metadata !303} ; [ DW_TAG_pointer_type ] [line 0, size 64, align 64, offset 0] [from C<21>]
!1018 = metadata !{i32 6, i32 0, metadata !299, null}
!1019 = metadata !{i32 786688, metadata !1020, metadata !"arr", metadata !6, i32 7, metadata !1021, i32 0, i32 0} ; [ DW_TAG_auto_variable ] [arr] [line 7]
!1020 = metadata !{i32 786443, metadata !299, i32 6, i32 0, metadata !6, i32 26} ; [ DW_TAG_lexical_block ] [/home/jazouani/llvm/build/tools/clang/test/CodeGenCXX//home/jazouani/llvm/llvm-3.2/tools/clang/test/CodeGenCXX/debug-info-determinism.cpp]
!1021 = metadata !{i32 786433, null, metadata !"", null, i32 0, i64 1344, i64 32, i32 0, i32 0, metadata !9, metadata !1022, i32 0, i32 0} ; [ DW_TAG_array_type ] [line 0, size 1344, align 32, offset 0] [from int]
!1022 = metadata !{metadata !1023}
!1023 = metadata !{i32 786465, i64 0, i64 41}     ; [ DW_TAG_subrange_type ] [0, 41]
!1024 = metadata !{i32 7, i32 0, metadata !1020, null}
!1025 = metadata !{i32 8, i32 0, metadata !1020, null}
!1026 = metadata !{i32 786689, metadata !322, metadata !"this", metadata !6, i32 16777222, metadata !1017, i32 1088, i32 0} ; [ DW_TAG_arg_variable ] [this] [line 6]
!1027 = metadata !{i32 6, i32 0, metadata !322, null}
!1028 = metadata !{i32 786688, metadata !1029, metadata !"arr", metadata !6, i32 7, metadata !1030, i32 0, i32 0} ; [ DW_TAG_auto_variable ] [arr] [line 7]
!1029 = metadata !{i32 786443, metadata !322, i32 6, i32 0, metadata !6, i32 27} ; [ DW_TAG_lexical_block ] [/home/jazouani/llvm/build/tools/clang/test/CodeGenCXX//home/jazouani/llvm/llvm-3.2/tools/clang/test/CodeGenCXX/debug-info-determinism.cpp]
!1030 = metadata !{i32 786433, null, metadata !"", null, i32 0, i64 1312, i64 32, i32 0, i32 0, metadata !9, metadata !1031, i32 0, i32 0} ; [ DW_TAG_array_type ] [line 0, size 1312, align 32, offset 0] [from int]
!1031 = metadata !{metadata !1032}
!1032 = metadata !{i32 786465, i64 0, i64 40}     ; [ DW_TAG_subrange_type ] [0, 40]
!1033 = metadata !{i32 7, i32 0, metadata !1029, null}
!1034 = metadata !{i32 8, i32 0, metadata !1029, null}
!1035 = metadata !{i32 786689, metadata !323, metadata !"this", metadata !6, i32 16777222, metadata !1036, i32 1088, i32 0} ; [ DW_TAG_arg_variable ] [this] [line 6]
!1036 = metadata !{i32 786447, null, metadata !"", null, i32 0, i64 64, i64 64, i64 0, i32 0, metadata !327} ; [ DW_TAG_pointer_type ] [line 0, size 64, align 64, offset 0] [from C<20>]
!1037 = metadata !{i32 6, i32 0, metadata !323, null}
!1038 = metadata !{i32 786688, metadata !1039, metadata !"arr", metadata !6, i32 7, metadata !1040, i32 0, i32 0} ; [ DW_TAG_auto_variable ] [arr] [line 7]
!1039 = metadata !{i32 786443, metadata !323, i32 6, i32 0, metadata !6, i32 28} ; [ DW_TAG_lexical_block ] [/home/jazouani/llvm/build/tools/clang/test/CodeGenCXX//home/jazouani/llvm/llvm-3.2/tools/clang/test/CodeGenCXX/debug-info-determinism.cpp]
!1040 = metadata !{i32 786433, null, metadata !"", null, i32 0, i64 1280, i64 32, i32 0, i32 0, metadata !9, metadata !1041, i32 0, i32 0} ; [ DW_TAG_array_type ] [line 0, size 1280, align 32, offset 0] [from int]
!1041 = metadata !{metadata !1042}
!1042 = metadata !{i32 786465, i64 0, i64 39}     ; [ DW_TAG_subrange_type ] [0, 39]
!1043 = metadata !{i32 7, i32 0, metadata !1039, null}
!1044 = metadata !{i32 8, i32 0, metadata !1039, null}
!1045 = metadata !{i32 786689, metadata !346, metadata !"this", metadata !6, i32 16777222, metadata !1036, i32 1088, i32 0} ; [ DW_TAG_arg_variable ] [this] [line 6]
!1046 = metadata !{i32 6, i32 0, metadata !346, null}
!1047 = metadata !{i32 786688, metadata !1048, metadata !"arr", metadata !6, i32 7, metadata !1049, i32 0, i32 0} ; [ DW_TAG_auto_variable ] [arr] [line 7]
!1048 = metadata !{i32 786443, metadata !346, i32 6, i32 0, metadata !6, i32 29} ; [ DW_TAG_lexical_block ] [/home/jazouani/llvm/build/tools/clang/test/CodeGenCXX//home/jazouani/llvm/llvm-3.2/tools/clang/test/CodeGenCXX/debug-info-determinism.cpp]
!1049 = metadata !{i32 786433, null, metadata !"", null, i32 0, i64 1248, i64 32, i32 0, i32 0, metadata !9, metadata !1050, i32 0, i32 0} ; [ DW_TAG_array_type ] [line 0, size 1248, align 32, offset 0] [from int]
!1050 = metadata !{metadata !1051}
!1051 = metadata !{i32 786465, i64 0, i64 38}     ; [ DW_TAG_subrange_type ] [0, 38]
!1052 = metadata !{i32 7, i32 0, metadata !1048, null}
!1053 = metadata !{i32 8, i32 0, metadata !1048, null}
!1054 = metadata !{i32 786689, metadata !347, metadata !"this", metadata !6, i32 16777222, metadata !1055, i32 1088, i32 0} ; [ DW_TAG_arg_variable ] [this] [line 6]
!1055 = metadata !{i32 786447, null, metadata !"", null, i32 0, i64 64, i64 64, i64 0, i32 0, metadata !351} ; [ DW_TAG_pointer_type ] [line 0, size 64, align 64, offset 0] [from C<19>]
!1056 = metadata !{i32 6, i32 0, metadata !347, null}
!1057 = metadata !{i32 786688, metadata !1058, metadata !"arr", metadata !6, i32 7, metadata !1059, i32 0, i32 0} ; [ DW_TAG_auto_variable ] [arr] [line 7]
!1058 = metadata !{i32 786443, metadata !347, i32 6, i32 0, metadata !6, i32 30} ; [ DW_TAG_lexical_block ] [/home/jazouani/llvm/build/tools/clang/test/CodeGenCXX//home/jazouani/llvm/llvm-3.2/tools/clang/test/CodeGenCXX/debug-info-determinism.cpp]
!1059 = metadata !{i32 786433, null, metadata !"", null, i32 0, i64 1216, i64 32, i32 0, i32 0, metadata !9, metadata !1060, i32 0, i32 0} ; [ DW_TAG_array_type ] [line 0, size 1216, align 32, offset 0] [from int]
!1060 = metadata !{metadata !1061}
!1061 = metadata !{i32 786465, i64 0, i64 37}     ; [ DW_TAG_subrange_type ] [0, 37]
!1062 = metadata !{i32 7, i32 0, metadata !1058, null}
!1063 = metadata !{i32 8, i32 0, metadata !1058, null}
!1064 = metadata !{i32 786689, metadata !370, metadata !"this", metadata !6, i32 16777222, metadata !1055, i32 1088, i32 0} ; [ DW_TAG_arg_variable ] [this] [line 6]
!1065 = metadata !{i32 6, i32 0, metadata !370, null}
!1066 = metadata !{i32 786688, metadata !1067, metadata !"arr", metadata !6, i32 7, metadata !1068, i32 0, i32 0} ; [ DW_TAG_auto_variable ] [arr] [line 7]
!1067 = metadata !{i32 786443, metadata !370, i32 6, i32 0, metadata !6, i32 31} ; [ DW_TAG_lexical_block ] [/home/jazouani/llvm/build/tools/clang/test/CodeGenCXX//home/jazouani/llvm/llvm-3.2/tools/clang/test/CodeGenCXX/debug-info-determinism.cpp]
!1068 = metadata !{i32 786433, null, metadata !"", null, i32 0, i64 1184, i64 32, i32 0, i32 0, metadata !9, metadata !1069, i32 0, i32 0} ; [ DW_TAG_array_type ] [line 0, size 1184, align 32, offset 0] [from int]
!1069 = metadata !{metadata !1070}
!1070 = metadata !{i32 786465, i64 0, i64 36}     ; [ DW_TAG_subrange_type ] [0, 36]
!1071 = metadata !{i32 7, i32 0, metadata !1067, null}
!1072 = metadata !{i32 8, i32 0, metadata !1067, null}
!1073 = metadata !{i32 786689, metadata !371, metadata !"this", metadata !6, i32 16777222, metadata !1074, i32 1088, i32 0} ; [ DW_TAG_arg_variable ] [this] [line 6]
!1074 = metadata !{i32 786447, null, metadata !"", null, i32 0, i64 64, i64 64, i64 0, i32 0, metadata !375} ; [ DW_TAG_pointer_type ] [line 0, size 64, align 64, offset 0] [from C<18>]
!1075 = metadata !{i32 6, i32 0, metadata !371, null}
!1076 = metadata !{i32 786688, metadata !1077, metadata !"arr", metadata !6, i32 7, metadata !1078, i32 0, i32 0} ; [ DW_TAG_auto_variable ] [arr] [line 7]
!1077 = metadata !{i32 786443, metadata !371, i32 6, i32 0, metadata !6, i32 32} ; [ DW_TAG_lexical_block ] [/home/jazouani/llvm/build/tools/clang/test/CodeGenCXX//home/jazouani/llvm/llvm-3.2/tools/clang/test/CodeGenCXX/debug-info-determinism.cpp]
!1078 = metadata !{i32 786433, null, metadata !"", null, i32 0, i64 1152, i64 32, i32 0, i32 0, metadata !9, metadata !1079, i32 0, i32 0} ; [ DW_TAG_array_type ] [line 0, size 1152, align 32, offset 0] [from int]
!1079 = metadata !{metadata !1080}
!1080 = metadata !{i32 786465, i64 0, i64 35}     ; [ DW_TAG_subrange_type ] [0, 35]
!1081 = metadata !{i32 7, i32 0, metadata !1077, null}
!1082 = metadata !{i32 8, i32 0, metadata !1077, null}
!1083 = metadata !{i32 786689, metadata !394, metadata !"this", metadata !6, i32 16777222, metadata !1074, i32 1088, i32 0} ; [ DW_TAG_arg_variable ] [this] [line 6]
!1084 = metadata !{i32 6, i32 0, metadata !394, null}
!1085 = metadata !{i32 786688, metadata !1086, metadata !"arr", metadata !6, i32 7, metadata !1087, i32 0, i32 0} ; [ DW_TAG_auto_variable ] [arr] [line 7]
!1086 = metadata !{i32 786443, metadata !394, i32 6, i32 0, metadata !6, i32 33} ; [ DW_TAG_lexical_block ] [/home/jazouani/llvm/build/tools/clang/test/CodeGenCXX//home/jazouani/llvm/llvm-3.2/tools/clang/test/CodeGenCXX/debug-info-determinism.cpp]
!1087 = metadata !{i32 786433, null, metadata !"", null, i32 0, i64 1120, i64 32, i32 0, i32 0, metadata !9, metadata !1088, i32 0, i32 0} ; [ DW_TAG_array_type ] [line 0, size 1120, align 32, offset 0] [from int]
!1088 = metadata !{metadata !1089}
!1089 = metadata !{i32 786465, i64 0, i64 34}     ; [ DW_TAG_subrange_type ] [0, 34]
!1090 = metadata !{i32 7, i32 0, metadata !1086, null}
!1091 = metadata !{i32 8, i32 0, metadata !1086, null}
!1092 = metadata !{i32 786689, metadata !395, metadata !"this", metadata !6, i32 16777222, metadata !1093, i32 1088, i32 0} ; [ DW_TAG_arg_variable ] [this] [line 6]
!1093 = metadata !{i32 786447, null, metadata !"", null, i32 0, i64 64, i64 64, i64 0, i32 0, metadata !399} ; [ DW_TAG_pointer_type ] [line 0, size 64, align 64, offset 0] [from C<17>]
!1094 = metadata !{i32 6, i32 0, metadata !395, null}
!1095 = metadata !{i32 786688, metadata !1096, metadata !"arr", metadata !6, i32 7, metadata !1097, i32 0, i32 0} ; [ DW_TAG_auto_variable ] [arr] [line 7]
!1096 = metadata !{i32 786443, metadata !395, i32 6, i32 0, metadata !6, i32 34} ; [ DW_TAG_lexical_block ] [/home/jazouani/llvm/build/tools/clang/test/CodeGenCXX//home/jazouani/llvm/llvm-3.2/tools/clang/test/CodeGenCXX/debug-info-determinism.cpp]
!1097 = metadata !{i32 786433, null, metadata !"", null, i32 0, i64 1088, i64 32, i32 0, i32 0, metadata !9, metadata !1098, i32 0, i32 0} ; [ DW_TAG_array_type ] [line 0, size 1088, align 32, offset 0] [from int]
!1098 = metadata !{metadata !1099}
!1099 = metadata !{i32 786465, i64 0, i64 33}     ; [ DW_TAG_subrange_type ] [0, 33]
!1100 = metadata !{i32 7, i32 0, metadata !1096, null}
!1101 = metadata !{i32 8, i32 0, metadata !1096, null}
!1102 = metadata !{i32 786689, metadata !418, metadata !"this", metadata !6, i32 16777222, metadata !1093, i32 1088, i32 0} ; [ DW_TAG_arg_variable ] [this] [line 6]
!1103 = metadata !{i32 6, i32 0, metadata !418, null}
!1104 = metadata !{i32 786688, metadata !1105, metadata !"arr", metadata !6, i32 7, metadata !1106, i32 0, i32 0} ; [ DW_TAG_auto_variable ] [arr] [line 7]
!1105 = metadata !{i32 786443, metadata !418, i32 6, i32 0, metadata !6, i32 35} ; [ DW_TAG_lexical_block ] [/home/jazouani/llvm/build/tools/clang/test/CodeGenCXX//home/jazouani/llvm/llvm-3.2/tools/clang/test/CodeGenCXX/debug-info-determinism.cpp]
!1106 = metadata !{i32 786433, null, metadata !"", null, i32 0, i64 1056, i64 32, i32 0, i32 0, metadata !9, metadata !1107, i32 0, i32 0} ; [ DW_TAG_array_type ] [line 0, size 1056, align 32, offset 0] [from int]
!1107 = metadata !{metadata !1108}
!1108 = metadata !{i32 786465, i64 0, i64 32}     ; [ DW_TAG_subrange_type ] [0, 32]
!1109 = metadata !{i32 7, i32 0, metadata !1105, null}
!1110 = metadata !{i32 8, i32 0, metadata !1105, null}
!1111 = metadata !{i32 786689, metadata !419, metadata !"this", metadata !6, i32 16777222, metadata !1112, i32 1088, i32 0} ; [ DW_TAG_arg_variable ] [this] [line 6]
!1112 = metadata !{i32 786447, null, metadata !"", null, i32 0, i64 64, i64 64, i64 0, i32 0, metadata !423} ; [ DW_TAG_pointer_type ] [line 0, size 64, align 64, offset 0] [from C<16>]
!1113 = metadata !{i32 6, i32 0, metadata !419, null}
!1114 = metadata !{i32 786688, metadata !1115, metadata !"arr", metadata !6, i32 7, metadata !1116, i32 0, i32 0} ; [ DW_TAG_auto_variable ] [arr] [line 7]
!1115 = metadata !{i32 786443, metadata !419, i32 6, i32 0, metadata !6, i32 36} ; [ DW_TAG_lexical_block ] [/home/jazouani/llvm/build/tools/clang/test/CodeGenCXX//home/jazouani/llvm/llvm-3.2/tools/clang/test/CodeGenCXX/debug-info-determinism.cpp]
!1116 = metadata !{i32 786433, null, metadata !"", null, i32 0, i64 1024, i64 32, i32 0, i32 0, metadata !9, metadata !1117, i32 0, i32 0} ; [ DW_TAG_array_type ] [line 0, size 1024, align 32, offset 0] [from int]
!1117 = metadata !{metadata !1118}
!1118 = metadata !{i32 786465, i64 0, i64 31}     ; [ DW_TAG_subrange_type ] [0, 31]
!1119 = metadata !{i32 7, i32 0, metadata !1115, null}
!1120 = metadata !{i32 8, i32 0, metadata !1115, null}
!1121 = metadata !{i32 786689, metadata !442, metadata !"this", metadata !6, i32 16777222, metadata !1112, i32 1088, i32 0} ; [ DW_TAG_arg_variable ] [this] [line 6]
!1122 = metadata !{i32 6, i32 0, metadata !442, null}
!1123 = metadata !{i32 786688, metadata !1124, metadata !"arr", metadata !6, i32 7, metadata !1125, i32 0, i32 0} ; [ DW_TAG_auto_variable ] [arr] [line 7]
!1124 = metadata !{i32 786443, metadata !442, i32 6, i32 0, metadata !6, i32 37} ; [ DW_TAG_lexical_block ] [/home/jazouani/llvm/build/tools/clang/test/CodeGenCXX//home/jazouani/llvm/llvm-3.2/tools/clang/test/CodeGenCXX/debug-info-determinism.cpp]
!1125 = metadata !{i32 786433, null, metadata !"", null, i32 0, i64 992, i64 32, i32 0, i32 0, metadata !9, metadata !1126, i32 0, i32 0} ; [ DW_TAG_array_type ] [line 0, size 992, align 32, offset 0] [from int]
!1126 = metadata !{metadata !1127}
!1127 = metadata !{i32 786465, i64 0, i64 30}     ; [ DW_TAG_subrange_type ] [0, 30]
!1128 = metadata !{i32 7, i32 0, metadata !1124, null}
!1129 = metadata !{i32 8, i32 0, metadata !1124, null}
!1130 = metadata !{i32 786689, metadata !443, metadata !"this", metadata !6, i32 16777222, metadata !1131, i32 1088, i32 0} ; [ DW_TAG_arg_variable ] [this] [line 6]
!1131 = metadata !{i32 786447, null, metadata !"", null, i32 0, i64 64, i64 64, i64 0, i32 0, metadata !447} ; [ DW_TAG_pointer_type ] [line 0, size 64, align 64, offset 0] [from C<15>]
!1132 = metadata !{i32 6, i32 0, metadata !443, null}
!1133 = metadata !{i32 786688, metadata !1134, metadata !"arr", metadata !6, i32 7, metadata !1135, i32 0, i32 0} ; [ DW_TAG_auto_variable ] [arr] [line 7]
!1134 = metadata !{i32 786443, metadata !443, i32 6, i32 0, metadata !6, i32 38} ; [ DW_TAG_lexical_block ] [/home/jazouani/llvm/build/tools/clang/test/CodeGenCXX//home/jazouani/llvm/llvm-3.2/tools/clang/test/CodeGenCXX/debug-info-determinism.cpp]
!1135 = metadata !{i32 786433, null, metadata !"", null, i32 0, i64 960, i64 32, i32 0, i32 0, metadata !9, metadata !1136, i32 0, i32 0} ; [ DW_TAG_array_type ] [line 0, size 960, align 32, offset 0] [from int]
!1136 = metadata !{metadata !1137}
!1137 = metadata !{i32 786465, i64 0, i64 29}     ; [ DW_TAG_subrange_type ] [0, 29]
!1138 = metadata !{i32 7, i32 0, metadata !1134, null}
!1139 = metadata !{i32 8, i32 0, metadata !1134, null}
!1140 = metadata !{i32 786689, metadata !466, metadata !"this", metadata !6, i32 16777222, metadata !1131, i32 1088, i32 0} ; [ DW_TAG_arg_variable ] [this] [line 6]
!1141 = metadata !{i32 6, i32 0, metadata !466, null}
!1142 = metadata !{i32 786688, metadata !1143, metadata !"arr", metadata !6, i32 7, metadata !1144, i32 0, i32 0} ; [ DW_TAG_auto_variable ] [arr] [line 7]
!1143 = metadata !{i32 786443, metadata !466, i32 6, i32 0, metadata !6, i32 39} ; [ DW_TAG_lexical_block ] [/home/jazouani/llvm/build/tools/clang/test/CodeGenCXX//home/jazouani/llvm/llvm-3.2/tools/clang/test/CodeGenCXX/debug-info-determinism.cpp]
!1144 = metadata !{i32 786433, null, metadata !"", null, i32 0, i64 928, i64 32, i32 0, i32 0, metadata !9, metadata !1145, i32 0, i32 0} ; [ DW_TAG_array_type ] [line 0, size 928, align 32, offset 0] [from int]
!1145 = metadata !{metadata !1146}
!1146 = metadata !{i32 786465, i64 0, i64 28}     ; [ DW_TAG_subrange_type ] [0, 28]
!1147 = metadata !{i32 7, i32 0, metadata !1143, null}
!1148 = metadata !{i32 8, i32 0, metadata !1143, null}
!1149 = metadata !{i32 786689, metadata !467, metadata !"this", metadata !6, i32 16777222, metadata !1150, i32 1088, i32 0} ; [ DW_TAG_arg_variable ] [this] [line 6]
!1150 = metadata !{i32 786447, null, metadata !"", null, i32 0, i64 64, i64 64, i64 0, i32 0, metadata !471} ; [ DW_TAG_pointer_type ] [line 0, size 64, align 64, offset 0] [from C<14>]
!1151 = metadata !{i32 6, i32 0, metadata !467, null}
!1152 = metadata !{i32 786688, metadata !1153, metadata !"arr", metadata !6, i32 7, metadata !1154, i32 0, i32 0} ; [ DW_TAG_auto_variable ] [arr] [line 7]
!1153 = metadata !{i32 786443, metadata !467, i32 6, i32 0, metadata !6, i32 40} ; [ DW_TAG_lexical_block ] [/home/jazouani/llvm/build/tools/clang/test/CodeGenCXX//home/jazouani/llvm/llvm-3.2/tools/clang/test/CodeGenCXX/debug-info-determinism.cpp]
!1154 = metadata !{i32 786433, null, metadata !"", null, i32 0, i64 896, i64 32, i32 0, i32 0, metadata !9, metadata !1155, i32 0, i32 0} ; [ DW_TAG_array_type ] [line 0, size 896, align 32, offset 0] [from int]
!1155 = metadata !{metadata !1156}
!1156 = metadata !{i32 786465, i64 0, i64 27}     ; [ DW_TAG_subrange_type ] [0, 27]
!1157 = metadata !{i32 7, i32 0, metadata !1153, null}
!1158 = metadata !{i32 8, i32 0, metadata !1153, null}
!1159 = metadata !{i32 786689, metadata !490, metadata !"this", metadata !6, i32 16777222, metadata !1150, i32 1088, i32 0} ; [ DW_TAG_arg_variable ] [this] [line 6]
!1160 = metadata !{i32 6, i32 0, metadata !490, null}
!1161 = metadata !{i32 786688, metadata !1162, metadata !"arr", metadata !6, i32 7, metadata !1163, i32 0, i32 0} ; [ DW_TAG_auto_variable ] [arr] [line 7]
!1162 = metadata !{i32 786443, metadata !490, i32 6, i32 0, metadata !6, i32 41} ; [ DW_TAG_lexical_block ] [/home/jazouani/llvm/build/tools/clang/test/CodeGenCXX//home/jazouani/llvm/llvm-3.2/tools/clang/test/CodeGenCXX/debug-info-determinism.cpp]
!1163 = metadata !{i32 786433, null, metadata !"", null, i32 0, i64 864, i64 32, i32 0, i32 0, metadata !9, metadata !1164, i32 0, i32 0} ; [ DW_TAG_array_type ] [line 0, size 864, align 32, offset 0] [from int]
!1164 = metadata !{metadata !1165}
!1165 = metadata !{i32 786465, i64 0, i64 26}     ; [ DW_TAG_subrange_type ] [0, 26]
!1166 = metadata !{i32 7, i32 0, metadata !1162, null}
!1167 = metadata !{i32 8, i32 0, metadata !1162, null}
!1168 = metadata !{i32 786689, metadata !491, metadata !"this", metadata !6, i32 16777222, metadata !1169, i32 1088, i32 0} ; [ DW_TAG_arg_variable ] [this] [line 6]
!1169 = metadata !{i32 786447, null, metadata !"", null, i32 0, i64 64, i64 64, i64 0, i32 0, metadata !495} ; [ DW_TAG_pointer_type ] [line 0, size 64, align 64, offset 0] [from C<13>]
!1170 = metadata !{i32 6, i32 0, metadata !491, null}
!1171 = metadata !{i32 786688, metadata !1172, metadata !"arr", metadata !6, i32 7, metadata !1173, i32 0, i32 0} ; [ DW_TAG_auto_variable ] [arr] [line 7]
!1172 = metadata !{i32 786443, metadata !491, i32 6, i32 0, metadata !6, i32 42} ; [ DW_TAG_lexical_block ] [/home/jazouani/llvm/build/tools/clang/test/CodeGenCXX//home/jazouani/llvm/llvm-3.2/tools/clang/test/CodeGenCXX/debug-info-determinism.cpp]
!1173 = metadata !{i32 786433, null, metadata !"", null, i32 0, i64 832, i64 32, i32 0, i32 0, metadata !9, metadata !1174, i32 0, i32 0} ; [ DW_TAG_array_type ] [line 0, size 832, align 32, offset 0] [from int]
!1174 = metadata !{metadata !1175}
!1175 = metadata !{i32 786465, i64 0, i64 25}     ; [ DW_TAG_subrange_type ] [0, 25]
!1176 = metadata !{i32 7, i32 0, metadata !1172, null}
!1177 = metadata !{i32 8, i32 0, metadata !1172, null}
!1178 = metadata !{i32 786689, metadata !514, metadata !"this", metadata !6, i32 16777222, metadata !1169, i32 1088, i32 0} ; [ DW_TAG_arg_variable ] [this] [line 6]
!1179 = metadata !{i32 6, i32 0, metadata !514, null}
!1180 = metadata !{i32 786688, metadata !1181, metadata !"arr", metadata !6, i32 7, metadata !1182, i32 0, i32 0} ; [ DW_TAG_auto_variable ] [arr] [line 7]
!1181 = metadata !{i32 786443, metadata !514, i32 6, i32 0, metadata !6, i32 43} ; [ DW_TAG_lexical_block ] [/home/jazouani/llvm/build/tools/clang/test/CodeGenCXX//home/jazouani/llvm/llvm-3.2/tools/clang/test/CodeGenCXX/debug-info-determinism.cpp]
!1182 = metadata !{i32 786433, null, metadata !"", null, i32 0, i64 800, i64 32, i32 0, i32 0, metadata !9, metadata !1183, i32 0, i32 0} ; [ DW_TAG_array_type ] [line 0, size 800, align 32, offset 0] [from int]
!1183 = metadata !{metadata !1184}
!1184 = metadata !{i32 786465, i64 0, i64 24}     ; [ DW_TAG_subrange_type ] [0, 24]
!1185 = metadata !{i32 7, i32 0, metadata !1181, null}
!1186 = metadata !{i32 8, i32 0, metadata !1181, null}
!1187 = metadata !{i32 786689, metadata !515, metadata !"this", metadata !6, i32 16777222, metadata !1188, i32 1088, i32 0} ; [ DW_TAG_arg_variable ] [this] [line 6]
!1188 = metadata !{i32 786447, null, metadata !"", null, i32 0, i64 64, i64 64, i64 0, i32 0, metadata !519} ; [ DW_TAG_pointer_type ] [line 0, size 64, align 64, offset 0] [from C<12>]
!1189 = metadata !{i32 6, i32 0, metadata !515, null}
!1190 = metadata !{i32 786688, metadata !1191, metadata !"arr", metadata !6, i32 7, metadata !1192, i32 0, i32 0} ; [ DW_TAG_auto_variable ] [arr] [line 7]
!1191 = metadata !{i32 786443, metadata !515, i32 6, i32 0, metadata !6, i32 44} ; [ DW_TAG_lexical_block ] [/home/jazouani/llvm/build/tools/clang/test/CodeGenCXX//home/jazouani/llvm/llvm-3.2/tools/clang/test/CodeGenCXX/debug-info-determinism.cpp]
!1192 = metadata !{i32 786433, null, metadata !"", null, i32 0, i64 768, i64 32, i32 0, i32 0, metadata !9, metadata !1193, i32 0, i32 0} ; [ DW_TAG_array_type ] [line 0, size 768, align 32, offset 0] [from int]
!1193 = metadata !{metadata !1194}
!1194 = metadata !{i32 786465, i64 0, i64 23}     ; [ DW_TAG_subrange_type ] [0, 23]
!1195 = metadata !{i32 7, i32 0, metadata !1191, null}
!1196 = metadata !{i32 8, i32 0, metadata !1191, null}
!1197 = metadata !{i32 786689, metadata !538, metadata !"this", metadata !6, i32 16777222, metadata !1188, i32 1088, i32 0} ; [ DW_TAG_arg_variable ] [this] [line 6]
!1198 = metadata !{i32 6, i32 0, metadata !538, null}
!1199 = metadata !{i32 786688, metadata !1200, metadata !"arr", metadata !6, i32 7, metadata !1201, i32 0, i32 0} ; [ DW_TAG_auto_variable ] [arr] [line 7]
!1200 = metadata !{i32 786443, metadata !538, i32 6, i32 0, metadata !6, i32 45} ; [ DW_TAG_lexical_block ] [/home/jazouani/llvm/build/tools/clang/test/CodeGenCXX//home/jazouani/llvm/llvm-3.2/tools/clang/test/CodeGenCXX/debug-info-determinism.cpp]
!1201 = metadata !{i32 786433, null, metadata !"", null, i32 0, i64 736, i64 32, i32 0, i32 0, metadata !9, metadata !1202, i32 0, i32 0} ; [ DW_TAG_array_type ] [line 0, size 736, align 32, offset 0] [from int]
!1202 = metadata !{metadata !1203}
!1203 = metadata !{i32 786465, i64 0, i64 22}     ; [ DW_TAG_subrange_type ] [0, 22]
!1204 = metadata !{i32 7, i32 0, metadata !1200, null}
!1205 = metadata !{i32 8, i32 0, metadata !1200, null}
!1206 = metadata !{i32 786689, metadata !539, metadata !"this", metadata !6, i32 16777222, metadata !1207, i32 1088, i32 0} ; [ DW_TAG_arg_variable ] [this] [line 6]
!1207 = metadata !{i32 786447, null, metadata !"", null, i32 0, i64 64, i64 64, i64 0, i32 0, metadata !543} ; [ DW_TAG_pointer_type ] [line 0, size 64, align 64, offset 0] [from C<11>]
!1208 = metadata !{i32 6, i32 0, metadata !539, null}
!1209 = metadata !{i32 786688, metadata !1210, metadata !"arr", metadata !6, i32 7, metadata !1211, i32 0, i32 0} ; [ DW_TAG_auto_variable ] [arr] [line 7]
!1210 = metadata !{i32 786443, metadata !539, i32 6, i32 0, metadata !6, i32 46} ; [ DW_TAG_lexical_block ] [/home/jazouani/llvm/build/tools/clang/test/CodeGenCXX//home/jazouani/llvm/llvm-3.2/tools/clang/test/CodeGenCXX/debug-info-determinism.cpp]
!1211 = metadata !{i32 786433, null, metadata !"", null, i32 0, i64 704, i64 32, i32 0, i32 0, metadata !9, metadata !1212, i32 0, i32 0} ; [ DW_TAG_array_type ] [line 0, size 704, align 32, offset 0] [from int]
!1212 = metadata !{metadata !1213}
!1213 = metadata !{i32 786465, i64 0, i64 21}     ; [ DW_TAG_subrange_type ] [0, 21]
!1214 = metadata !{i32 7, i32 0, metadata !1210, null}
!1215 = metadata !{i32 8, i32 0, metadata !1210, null}
!1216 = metadata !{i32 786689, metadata !562, metadata !"this", metadata !6, i32 16777222, metadata !1207, i32 1088, i32 0} ; [ DW_TAG_arg_variable ] [this] [line 6]
!1217 = metadata !{i32 6, i32 0, metadata !562, null}
!1218 = metadata !{i32 786688, metadata !1219, metadata !"arr", metadata !6, i32 7, metadata !1220, i32 0, i32 0} ; [ DW_TAG_auto_variable ] [arr] [line 7]
!1219 = metadata !{i32 786443, metadata !562, i32 6, i32 0, metadata !6, i32 47} ; [ DW_TAG_lexical_block ] [/home/jazouani/llvm/build/tools/clang/test/CodeGenCXX//home/jazouani/llvm/llvm-3.2/tools/clang/test/CodeGenCXX/debug-info-determinism.cpp]
!1220 = metadata !{i32 786433, null, metadata !"", null, i32 0, i64 672, i64 32, i32 0, i32 0, metadata !9, metadata !1221, i32 0, i32 0} ; [ DW_TAG_array_type ] [line 0, size 672, align 32, offset 0] [from int]
!1221 = metadata !{metadata !1222}
!1222 = metadata !{i32 786465, i64 0, i64 20}     ; [ DW_TAG_subrange_type ] [0, 20]
!1223 = metadata !{i32 7, i32 0, metadata !1219, null}
!1224 = metadata !{i32 8, i32 0, metadata !1219, null}
!1225 = metadata !{i32 786689, metadata !563, metadata !"this", metadata !6, i32 16777222, metadata !1226, i32 1088, i32 0} ; [ DW_TAG_arg_variable ] [this] [line 6]
!1226 = metadata !{i32 786447, null, metadata !"", null, i32 0, i64 64, i64 64, i64 0, i32 0, metadata !567} ; [ DW_TAG_pointer_type ] [line 0, size 64, align 64, offset 0] [from C<10>]
!1227 = metadata !{i32 6, i32 0, metadata !563, null}
!1228 = metadata !{i32 786688, metadata !1229, metadata !"arr", metadata !6, i32 7, metadata !1230, i32 0, i32 0} ; [ DW_TAG_auto_variable ] [arr] [line 7]
!1229 = metadata !{i32 786443, metadata !563, i32 6, i32 0, metadata !6, i32 48} ; [ DW_TAG_lexical_block ] [/home/jazouani/llvm/build/tools/clang/test/CodeGenCXX//home/jazouani/llvm/llvm-3.2/tools/clang/test/CodeGenCXX/debug-info-determinism.cpp]
!1230 = metadata !{i32 786433, null, metadata !"", null, i32 0, i64 640, i64 32, i32 0, i32 0, metadata !9, metadata !1231, i32 0, i32 0} ; [ DW_TAG_array_type ] [line 0, size 640, align 32, offset 0] [from int]
!1231 = metadata !{metadata !1232}
!1232 = metadata !{i32 786465, i64 0, i64 19}     ; [ DW_TAG_subrange_type ] [0, 19]
!1233 = metadata !{i32 7, i32 0, metadata !1229, null}
!1234 = metadata !{i32 8, i32 0, metadata !1229, null}
!1235 = metadata !{i32 786689, metadata !586, metadata !"this", metadata !6, i32 16777222, metadata !1226, i32 1088, i32 0} ; [ DW_TAG_arg_variable ] [this] [line 6]
!1236 = metadata !{i32 6, i32 0, metadata !586, null}
!1237 = metadata !{i32 786688, metadata !1238, metadata !"arr", metadata !6, i32 7, metadata !1239, i32 0, i32 0} ; [ DW_TAG_auto_variable ] [arr] [line 7]
!1238 = metadata !{i32 786443, metadata !586, i32 6, i32 0, metadata !6, i32 49} ; [ DW_TAG_lexical_block ] [/home/jazouani/llvm/build/tools/clang/test/CodeGenCXX//home/jazouani/llvm/llvm-3.2/tools/clang/test/CodeGenCXX/debug-info-determinism.cpp]
!1239 = metadata !{i32 786433, null, metadata !"", null, i32 0, i64 608, i64 32, i32 0, i32 0, metadata !9, metadata !1240, i32 0, i32 0} ; [ DW_TAG_array_type ] [line 0, size 608, align 32, offset 0] [from int]
!1240 = metadata !{metadata !1241}
!1241 = metadata !{i32 786465, i64 0, i64 18}     ; [ DW_TAG_subrange_type ] [0, 18]
!1242 = metadata !{i32 7, i32 0, metadata !1238, null}
!1243 = metadata !{i32 8, i32 0, metadata !1238, null}
!1244 = metadata !{i32 786689, metadata !587, metadata !"this", metadata !6, i32 16777222, metadata !1245, i32 1088, i32 0} ; [ DW_TAG_arg_variable ] [this] [line 6]
!1245 = metadata !{i32 786447, null, metadata !"", null, i32 0, i64 64, i64 64, i64 0, i32 0, metadata !591} ; [ DW_TAG_pointer_type ] [line 0, size 64, align 64, offset 0] [from C<9>]
!1246 = metadata !{i32 6, i32 0, metadata !587, null}
!1247 = metadata !{i32 786688, metadata !1248, metadata !"arr", metadata !6, i32 7, metadata !1249, i32 0, i32 0} ; [ DW_TAG_auto_variable ] [arr] [line 7]
!1248 = metadata !{i32 786443, metadata !587, i32 6, i32 0, metadata !6, i32 50} ; [ DW_TAG_lexical_block ] [/home/jazouani/llvm/build/tools/clang/test/CodeGenCXX//home/jazouani/llvm/llvm-3.2/tools/clang/test/CodeGenCXX/debug-info-determinism.cpp]
!1249 = metadata !{i32 786433, null, metadata !"", null, i32 0, i64 576, i64 32, i32 0, i32 0, metadata !9, metadata !1250, i32 0, i32 0} ; [ DW_TAG_array_type ] [line 0, size 576, align 32, offset 0] [from int]
!1250 = metadata !{metadata !1251}
!1251 = metadata !{i32 786465, i64 0, i64 17}     ; [ DW_TAG_subrange_type ] [0, 17]
!1252 = metadata !{i32 7, i32 0, metadata !1248, null}
!1253 = metadata !{i32 8, i32 0, metadata !1248, null}
!1254 = metadata !{i32 786689, metadata !610, metadata !"this", metadata !6, i32 16777222, metadata !1245, i32 1088, i32 0} ; [ DW_TAG_arg_variable ] [this] [line 6]
!1255 = metadata !{i32 6, i32 0, metadata !610, null}
!1256 = metadata !{i32 786688, metadata !1257, metadata !"arr", metadata !6, i32 7, metadata !1258, i32 0, i32 0} ; [ DW_TAG_auto_variable ] [arr] [line 7]
!1257 = metadata !{i32 786443, metadata !610, i32 6, i32 0, metadata !6, i32 51} ; [ DW_TAG_lexical_block ] [/home/jazouani/llvm/build/tools/clang/test/CodeGenCXX//home/jazouani/llvm/llvm-3.2/tools/clang/test/CodeGenCXX/debug-info-determinism.cpp]
!1258 = metadata !{i32 786433, null, metadata !"", null, i32 0, i64 544, i64 32, i32 0, i32 0, metadata !9, metadata !1259, i32 0, i32 0} ; [ DW_TAG_array_type ] [line 0, size 544, align 32, offset 0] [from int]
!1259 = metadata !{metadata !1260}
!1260 = metadata !{i32 786465, i64 0, i64 16}     ; [ DW_TAG_subrange_type ] [0, 16]
!1261 = metadata !{i32 7, i32 0, metadata !1257, null}
!1262 = metadata !{i32 8, i32 0, metadata !1257, null}
!1263 = metadata !{i32 786689, metadata !611, metadata !"this", metadata !6, i32 16777222, metadata !1264, i32 1088, i32 0} ; [ DW_TAG_arg_variable ] [this] [line 6]
!1264 = metadata !{i32 786447, null, metadata !"", null, i32 0, i64 64, i64 64, i64 0, i32 0, metadata !615} ; [ DW_TAG_pointer_type ] [line 0, size 64, align 64, offset 0] [from C<8>]
!1265 = metadata !{i32 6, i32 0, metadata !611, null}
!1266 = metadata !{i32 786688, metadata !1267, metadata !"arr", metadata !6, i32 7, metadata !1268, i32 0, i32 0} ; [ DW_TAG_auto_variable ] [arr] [line 7]
!1267 = metadata !{i32 786443, metadata !611, i32 6, i32 0, metadata !6, i32 52} ; [ DW_TAG_lexical_block ] [/home/jazouani/llvm/build/tools/clang/test/CodeGenCXX//home/jazouani/llvm/llvm-3.2/tools/clang/test/CodeGenCXX/debug-info-determinism.cpp]
!1268 = metadata !{i32 786433, null, metadata !"", null, i32 0, i64 512, i64 32, i32 0, i32 0, metadata !9, metadata !1269, i32 0, i32 0} ; [ DW_TAG_array_type ] [line 0, size 512, align 32, offset 0] [from int]
!1269 = metadata !{metadata !1270}
!1270 = metadata !{i32 786465, i64 0, i64 15}     ; [ DW_TAG_subrange_type ] [0, 15]
!1271 = metadata !{i32 7, i32 0, metadata !1267, null}
!1272 = metadata !{i32 8, i32 0, metadata !1267, null}
!1273 = metadata !{i32 786689, metadata !634, metadata !"this", metadata !6, i32 16777222, metadata !1264, i32 1088, i32 0} ; [ DW_TAG_arg_variable ] [this] [line 6]
!1274 = metadata !{i32 6, i32 0, metadata !634, null}
!1275 = metadata !{i32 786688, metadata !1276, metadata !"arr", metadata !6, i32 7, metadata !1277, i32 0, i32 0} ; [ DW_TAG_auto_variable ] [arr] [line 7]
!1276 = metadata !{i32 786443, metadata !634, i32 6, i32 0, metadata !6, i32 53} ; [ DW_TAG_lexical_block ] [/home/jazouani/llvm/build/tools/clang/test/CodeGenCXX//home/jazouani/llvm/llvm-3.2/tools/clang/test/CodeGenCXX/debug-info-determinism.cpp]
!1277 = metadata !{i32 786433, null, metadata !"", null, i32 0, i64 480, i64 32, i32 0, i32 0, metadata !9, metadata !1278, i32 0, i32 0} ; [ DW_TAG_array_type ] [line 0, size 480, align 32, offset 0] [from int]
!1278 = metadata !{metadata !1279}
!1279 = metadata !{i32 786465, i64 0, i64 14}     ; [ DW_TAG_subrange_type ] [0, 14]
!1280 = metadata !{i32 7, i32 0, metadata !1276, null}
!1281 = metadata !{i32 8, i32 0, metadata !1276, null}
!1282 = metadata !{i32 786689, metadata !635, metadata !"this", metadata !6, i32 16777222, metadata !1283, i32 1088, i32 0} ; [ DW_TAG_arg_variable ] [this] [line 6]
!1283 = metadata !{i32 786447, null, metadata !"", null, i32 0, i64 64, i64 64, i64 0, i32 0, metadata !639} ; [ DW_TAG_pointer_type ] [line 0, size 64, align 64, offset 0] [from C<7>]
!1284 = metadata !{i32 6, i32 0, metadata !635, null}
!1285 = metadata !{i32 786688, metadata !1286, metadata !"arr", metadata !6, i32 7, metadata !1287, i32 0, i32 0} ; [ DW_TAG_auto_variable ] [arr] [line 7]
!1286 = metadata !{i32 786443, metadata !635, i32 6, i32 0, metadata !6, i32 54} ; [ DW_TAG_lexical_block ] [/home/jazouani/llvm/build/tools/clang/test/CodeGenCXX//home/jazouani/llvm/llvm-3.2/tools/clang/test/CodeGenCXX/debug-info-determinism.cpp]
!1287 = metadata !{i32 786433, null, metadata !"", null, i32 0, i64 448, i64 32, i32 0, i32 0, metadata !9, metadata !1288, i32 0, i32 0} ; [ DW_TAG_array_type ] [line 0, size 448, align 32, offset 0] [from int]
!1288 = metadata !{metadata !1289}
!1289 = metadata !{i32 786465, i64 0, i64 13}     ; [ DW_TAG_subrange_type ] [0, 13]
!1290 = metadata !{i32 7, i32 0, metadata !1286, null}
!1291 = metadata !{i32 8, i32 0, metadata !1286, null}
!1292 = metadata !{i32 786689, metadata !658, metadata !"this", metadata !6, i32 16777222, metadata !1283, i32 1088, i32 0} ; [ DW_TAG_arg_variable ] [this] [line 6]
!1293 = metadata !{i32 6, i32 0, metadata !658, null}
!1294 = metadata !{i32 786688, metadata !1295, metadata !"arr", metadata !6, i32 7, metadata !1296, i32 0, i32 0} ; [ DW_TAG_auto_variable ] [arr] [line 7]
!1295 = metadata !{i32 786443, metadata !658, i32 6, i32 0, metadata !6, i32 55} ; [ DW_TAG_lexical_block ] [/home/jazouani/llvm/build/tools/clang/test/CodeGenCXX//home/jazouani/llvm/llvm-3.2/tools/clang/test/CodeGenCXX/debug-info-determinism.cpp]
!1296 = metadata !{i32 786433, null, metadata !"", null, i32 0, i64 416, i64 32, i32 0, i32 0, metadata !9, metadata !1297, i32 0, i32 0} ; [ DW_TAG_array_type ] [line 0, size 416, align 32, offset 0] [from int]
!1297 = metadata !{metadata !1298}
!1298 = metadata !{i32 786465, i64 0, i64 12}     ; [ DW_TAG_subrange_type ] [0, 12]
!1299 = metadata !{i32 7, i32 0, metadata !1295, null}
!1300 = metadata !{i32 8, i32 0, metadata !1295, null}
!1301 = metadata !{i32 786689, metadata !659, metadata !"this", metadata !6, i32 16777222, metadata !1302, i32 1088, i32 0} ; [ DW_TAG_arg_variable ] [this] [line 6]
!1302 = metadata !{i32 786447, null, metadata !"", null, i32 0, i64 64, i64 64, i64 0, i32 0, metadata !663} ; [ DW_TAG_pointer_type ] [line 0, size 64, align 64, offset 0] [from C<6>]
!1303 = metadata !{i32 6, i32 0, metadata !659, null}
!1304 = metadata !{i32 786688, metadata !1305, metadata !"arr", metadata !6, i32 7, metadata !1306, i32 0, i32 0} ; [ DW_TAG_auto_variable ] [arr] [line 7]
!1305 = metadata !{i32 786443, metadata !659, i32 6, i32 0, metadata !6, i32 56} ; [ DW_TAG_lexical_block ] [/home/jazouani/llvm/build/tools/clang/test/CodeGenCXX//home/jazouani/llvm/llvm-3.2/tools/clang/test/CodeGenCXX/debug-info-determinism.cpp]
!1306 = metadata !{i32 786433, null, metadata !"", null, i32 0, i64 384, i64 32, i32 0, i32 0, metadata !9, metadata !1307, i32 0, i32 0} ; [ DW_TAG_array_type ] [line 0, size 384, align 32, offset 0] [from int]
!1307 = metadata !{metadata !1308}
!1308 = metadata !{i32 786465, i64 0, i64 11}     ; [ DW_TAG_subrange_type ] [0, 11]
!1309 = metadata !{i32 7, i32 0, metadata !1305, null}
!1310 = metadata !{i32 8, i32 0, metadata !1305, null}
!1311 = metadata !{i32 786689, metadata !682, metadata !"this", metadata !6, i32 16777222, metadata !1302, i32 1088, i32 0} ; [ DW_TAG_arg_variable ] [this] [line 6]
!1312 = metadata !{i32 6, i32 0, metadata !682, null}
!1313 = metadata !{i32 786688, metadata !1314, metadata !"arr", metadata !6, i32 7, metadata !1315, i32 0, i32 0} ; [ DW_TAG_auto_variable ] [arr] [line 7]
!1314 = metadata !{i32 786443, metadata !682, i32 6, i32 0, metadata !6, i32 57} ; [ DW_TAG_lexical_block ] [/home/jazouani/llvm/build/tools/clang/test/CodeGenCXX//home/jazouani/llvm/llvm-3.2/tools/clang/test/CodeGenCXX/debug-info-determinism.cpp]
!1315 = metadata !{i32 786433, null, metadata !"", null, i32 0, i64 352, i64 32, i32 0, i32 0, metadata !9, metadata !1316, i32 0, i32 0} ; [ DW_TAG_array_type ] [line 0, size 352, align 32, offset 0] [from int]
!1316 = metadata !{metadata !1317}
!1317 = metadata !{i32 786465, i64 0, i64 10}     ; [ DW_TAG_subrange_type ] [0, 10]
!1318 = metadata !{i32 7, i32 0, metadata !1314, null}
!1319 = metadata !{i32 8, i32 0, metadata !1314, null}
!1320 = metadata !{i32 786689, metadata !683, metadata !"this", metadata !6, i32 16777222, metadata !1321, i32 1088, i32 0} ; [ DW_TAG_arg_variable ] [this] [line 6]
!1321 = metadata !{i32 786447, null, metadata !"", null, i32 0, i64 64, i64 64, i64 0, i32 0, metadata !687} ; [ DW_TAG_pointer_type ] [line 0, size 64, align 64, offset 0] [from C<5>]
!1322 = metadata !{i32 6, i32 0, metadata !683, null}
!1323 = metadata !{i32 786688, metadata !1324, metadata !"arr", metadata !6, i32 7, metadata !1325, i32 0, i32 0} ; [ DW_TAG_auto_variable ] [arr] [line 7]
!1324 = metadata !{i32 786443, metadata !683, i32 6, i32 0, metadata !6, i32 58} ; [ DW_TAG_lexical_block ] [/home/jazouani/llvm/build/tools/clang/test/CodeGenCXX//home/jazouani/llvm/llvm-3.2/tools/clang/test/CodeGenCXX/debug-info-determinism.cpp]
!1325 = metadata !{i32 786433, null, metadata !"", null, i32 0, i64 320, i64 32, i32 0, i32 0, metadata !9, metadata !1326, i32 0, i32 0} ; [ DW_TAG_array_type ] [line 0, size 320, align 32, offset 0] [from int]
!1326 = metadata !{metadata !1327}
!1327 = metadata !{i32 786465, i64 0, i64 9}      ; [ DW_TAG_subrange_type ] [0, 9]
!1328 = metadata !{i32 7, i32 0, metadata !1324, null}
!1329 = metadata !{i32 8, i32 0, metadata !1324, null}
!1330 = metadata !{i32 786689, metadata !706, metadata !"this", metadata !6, i32 16777222, metadata !1321, i32 1088, i32 0} ; [ DW_TAG_arg_variable ] [this] [line 6]
!1331 = metadata !{i32 6, i32 0, metadata !706, null}
!1332 = metadata !{i32 786688, metadata !1333, metadata !"arr", metadata !6, i32 7, metadata !1334, i32 0, i32 0} ; [ DW_TAG_auto_variable ] [arr] [line 7]
!1333 = metadata !{i32 786443, metadata !706, i32 6, i32 0, metadata !6, i32 59} ; [ DW_TAG_lexical_block ] [/home/jazouani/llvm/build/tools/clang/test/CodeGenCXX//home/jazouani/llvm/llvm-3.2/tools/clang/test/CodeGenCXX/debug-info-determinism.cpp]
!1334 = metadata !{i32 786433, null, metadata !"", null, i32 0, i64 288, i64 32, i32 0, i32 0, metadata !9, metadata !1335, i32 0, i32 0} ; [ DW_TAG_array_type ] [line 0, size 288, align 32, offset 0] [from int]
!1335 = metadata !{metadata !1336}
!1336 = metadata !{i32 786465, i64 0, i64 8}      ; [ DW_TAG_subrange_type ] [0, 8]
!1337 = metadata !{i32 7, i32 0, metadata !1333, null}
!1338 = metadata !{i32 8, i32 0, metadata !1333, null}
!1339 = metadata !{i32 786689, metadata !707, metadata !"this", metadata !6, i32 16777222, metadata !1340, i32 1088, i32 0} ; [ DW_TAG_arg_variable ] [this] [line 6]
!1340 = metadata !{i32 786447, null, metadata !"", null, i32 0, i64 64, i64 64, i64 0, i32 0, metadata !711} ; [ DW_TAG_pointer_type ] [line 0, size 64, align 64, offset 0] [from C<4>]
!1341 = metadata !{i32 6, i32 0, metadata !707, null}
!1342 = metadata !{i32 786688, metadata !1343, metadata !"arr", metadata !6, i32 7, metadata !1344, i32 0, i32 0} ; [ DW_TAG_auto_variable ] [arr] [line 7]
!1343 = metadata !{i32 786443, metadata !707, i32 6, i32 0, metadata !6, i32 60} ; [ DW_TAG_lexical_block ] [/home/jazouani/llvm/build/tools/clang/test/CodeGenCXX//home/jazouani/llvm/llvm-3.2/tools/clang/test/CodeGenCXX/debug-info-determinism.cpp]
!1344 = metadata !{i32 786433, null, metadata !"", null, i32 0, i64 256, i64 32, i32 0, i32 0, metadata !9, metadata !1345, i32 0, i32 0} ; [ DW_TAG_array_type ] [line 0, size 256, align 32, offset 0] [from int]
!1345 = metadata !{metadata !1346}
!1346 = metadata !{i32 786465, i64 0, i64 7}      ; [ DW_TAG_subrange_type ] [0, 7]
!1347 = metadata !{i32 7, i32 0, metadata !1343, null}
!1348 = metadata !{i32 8, i32 0, metadata !1343, null}
!1349 = metadata !{i32 786689, metadata !730, metadata !"this", metadata !6, i32 16777222, metadata !1340, i32 1088, i32 0} ; [ DW_TAG_arg_variable ] [this] [line 6]
!1350 = metadata !{i32 6, i32 0, metadata !730, null}
!1351 = metadata !{i32 786688, metadata !1352, metadata !"arr", metadata !6, i32 7, metadata !1353, i32 0, i32 0} ; [ DW_TAG_auto_variable ] [arr] [line 7]
!1352 = metadata !{i32 786443, metadata !730, i32 6, i32 0, metadata !6, i32 61} ; [ DW_TAG_lexical_block ] [/home/jazouani/llvm/build/tools/clang/test/CodeGenCXX//home/jazouani/llvm/llvm-3.2/tools/clang/test/CodeGenCXX/debug-info-determinism.cpp]
!1353 = metadata !{i32 786433, null, metadata !"", null, i32 0, i64 224, i64 32, i32 0, i32 0, metadata !9, metadata !1354, i32 0, i32 0} ; [ DW_TAG_array_type ] [line 0, size 224, align 32, offset 0] [from int]
!1354 = metadata !{metadata !1355}
!1355 = metadata !{i32 786465, i64 0, i64 6}      ; [ DW_TAG_subrange_type ] [0, 6]
!1356 = metadata !{i32 7, i32 0, metadata !1352, null}
!1357 = metadata !{i32 8, i32 0, metadata !1352, null}
!1358 = metadata !{i32 786689, metadata !731, metadata !"this", metadata !6, i32 16777222, metadata !1359, i32 1088, i32 0} ; [ DW_TAG_arg_variable ] [this] [line 6]
!1359 = metadata !{i32 786447, null, metadata !"", null, i32 0, i64 64, i64 64, i64 0, i32 0, metadata !735} ; [ DW_TAG_pointer_type ] [line 0, size 64, align 64, offset 0] [from C<3>]
!1360 = metadata !{i32 6, i32 0, metadata !731, null}
!1361 = metadata !{i32 786688, metadata !1362, metadata !"arr", metadata !6, i32 7, metadata !1363, i32 0, i32 0} ; [ DW_TAG_auto_variable ] [arr] [line 7]
!1362 = metadata !{i32 786443, metadata !731, i32 6, i32 0, metadata !6, i32 62} ; [ DW_TAG_lexical_block ] [/home/jazouani/llvm/build/tools/clang/test/CodeGenCXX//home/jazouani/llvm/llvm-3.2/tools/clang/test/CodeGenCXX/debug-info-determinism.cpp]
!1363 = metadata !{i32 786433, null, metadata !"", null, i32 0, i64 192, i64 32, i32 0, i32 0, metadata !9, metadata !1364, i32 0, i32 0} ; [ DW_TAG_array_type ] [line 0, size 192, align 32, offset 0] [from int]
!1364 = metadata !{metadata !1365}
!1365 = metadata !{i32 786465, i64 0, i64 5}      ; [ DW_TAG_subrange_type ] [0, 5]
!1366 = metadata !{i32 7, i32 0, metadata !1362, null}
!1367 = metadata !{i32 8, i32 0, metadata !1362, null}
!1368 = metadata !{i32 786689, metadata !754, metadata !"this", metadata !6, i32 16777222, metadata !1359, i32 1088, i32 0} ; [ DW_TAG_arg_variable ] [this] [line 6]
!1369 = metadata !{i32 6, i32 0, metadata !754, null}
!1370 = metadata !{i32 786688, metadata !1371, metadata !"arr", metadata !6, i32 7, metadata !1372, i32 0, i32 0} ; [ DW_TAG_auto_variable ] [arr] [line 7]
!1371 = metadata !{i32 786443, metadata !754, i32 6, i32 0, metadata !6, i32 63} ; [ DW_TAG_lexical_block ] [/home/jazouani/llvm/build/tools/clang/test/CodeGenCXX//home/jazouani/llvm/llvm-3.2/tools/clang/test/CodeGenCXX/debug-info-determinism.cpp]
!1372 = metadata !{i32 786433, null, metadata !"", null, i32 0, i64 160, i64 32, i32 0, i32 0, metadata !9, metadata !1373, i32 0, i32 0} ; [ DW_TAG_array_type ] [line 0, size 160, align 32, offset 0] [from int]
!1373 = metadata !{metadata !1374}
!1374 = metadata !{i32 786465, i64 0, i64 4}      ; [ DW_TAG_subrange_type ] [0, 4]
!1375 = metadata !{i32 7, i32 0, metadata !1371, null}
!1376 = metadata !{i32 8, i32 0, metadata !1371, null}
!1377 = metadata !{i32 786689, metadata !755, metadata !"this", metadata !6, i32 16777222, metadata !1378, i32 1088, i32 0} ; [ DW_TAG_arg_variable ] [this] [line 6]
!1378 = metadata !{i32 786447, null, metadata !"", null, i32 0, i64 64, i64 64, i64 0, i32 0, metadata !759} ; [ DW_TAG_pointer_type ] [line 0, size 64, align 64, offset 0] [from C<2>]
!1379 = metadata !{i32 6, i32 0, metadata !755, null}
!1380 = metadata !{i32 786688, metadata !1381, metadata !"arr", metadata !6, i32 7, metadata !1382, i32 0, i32 0} ; [ DW_TAG_auto_variable ] [arr] [line 7]
!1381 = metadata !{i32 786443, metadata !755, i32 6, i32 0, metadata !6, i32 64} ; [ DW_TAG_lexical_block ] [/home/jazouani/llvm/build/tools/clang/test/CodeGenCXX//home/jazouani/llvm/llvm-3.2/tools/clang/test/CodeGenCXX/debug-info-determinism.cpp]
!1382 = metadata !{i32 786433, null, metadata !"", null, i32 0, i64 128, i64 32, i32 0, i32 0, metadata !9, metadata !1383, i32 0, i32 0} ; [ DW_TAG_array_type ] [line 0, size 128, align 32, offset 0] [from int]
!1383 = metadata !{metadata !1384}
!1384 = metadata !{i32 786465, i64 0, i64 3}      ; [ DW_TAG_subrange_type ] [0, 3]
